	.file	"mem.cc"
	.section	.text.unlikely,"ax",@progbits
.LCOLDB0:
	.text
.LHOTB0:
	.p2align 4,,15
	.globl	_Z11epapi_startv
	.type	_Z11epapi_startv, @function
_Z11epapi_startv:
.LFB356:
	.cfi_startproc
	ret
	.cfi_endproc
.LFE356:
	.size	_Z11epapi_startv, .-_Z11epapi_startv
	.section	.text.unlikely
.LCOLDE0:
	.text
.LHOTE0:
	.section	.text.unlikely
.LCOLDB1:
	.text
.LHOTB1:
	.p2align 4,,15
	.globl	_Z10epapi_readv
	.type	_Z10epapi_readv, @function
_Z10epapi_readv:
.LFB354:
	.cfi_startproc
	ret
	.cfi_endproc
.LFE354:
	.size	_Z10epapi_readv, .-_Z10epapi_readv
	.section	.text.unlikely
.LCOLDE1:
	.text
.LHOTE1:
	.section	.text.unlikely
.LCOLDB2:
	.text
.LHOTB2:
	.p2align 4,,15
	.globl	_Z10epapi_stopv
	.type	_Z10epapi_stopv, @function
_Z10epapi_stopv:
.LFB352:
	.cfi_startproc
	ret
	.cfi_endproc
.LFE352:
	.size	_Z10epapi_stopv, .-_Z10epapi_stopv
	.section	.text.unlikely
.LCOLDE2:
	.text
.LHOTE2:
	.section	.text.unlikely
.LCOLDB3:
	.text
.LHOTB3:
	.p2align 4,,15
	.globl	_Z19epapi_show_countersv
	.type	_Z19epapi_show_countersv, @function
_Z19epapi_show_countersv:
.LFB3:
	.cfi_startproc
	ret
	.cfi_endproc
.LFE3:
	.size	_Z19epapi_show_countersv, .-_Z19epapi_show_countersv
	.section	.text.unlikely
.LCOLDE3:
	.text
.LHOTE3:
	.section	.text.unlikely
.LCOLDB5:
	.text
.LHOTB5:
	.p2align 4,,15
	.globl	_Z8cur_timev
	.type	_Z8cur_timev, @function
_Z8cur_timev:
.LFB80:
	.cfi_startproc
	subq	$40, %rsp
	.cfi_def_cfa_offset 48
	xorl	%esi, %esi
	movq	%fs:40, %rax
	movq	%rax, 24(%rsp)
	xorl	%eax, %eax
	movq	%rsp, %rdi
	call	gettimeofday
	vxorpd	%xmm0, %xmm0, %xmm0
	vxorpd	%xmm1, %xmm1, %xmm1
	movq	24(%rsp), %rax
	xorq	%fs:40, %rax
	vcvtsi2sdq	8(%rsp), %xmm0, %xmm0
	vcvtsi2sdq	(%rsp), %xmm1, %xmm2
	vfmadd132sd	.LC4(%rip), %xmm2, %xmm0
	jne	.L10
	addq	$40, %rsp
	.cfi_remember_state
	.cfi_def_cfa_offset 8
	ret
.L10:
	.cfi_restore_state
	call	__stack_chk_fail
	.cfi_endproc
.LFE80:
	.size	_Z8cur_timev, .-_Z8cur_timev
	.section	.text.unlikely
.LCOLDE5:
	.text
.LHOTE5:
	.section	.rodata.str1.1,"aMS",@progbits,1
.LC6:
	.string	"mem.cc"
.LC7:
	.string	"c[p - a] == 0"
.LC8:
	.string	"p - a >= 0"
.LC9:
	.string	"p - a < n"
.LC10:
	.string	"c[p - a]"
	.section	.text.unlikely
.LCOLDB11:
	.text
.LHOTB11:
	.p2align 4,,15
	.globl	_Z18check_links_cyclicP6recordl
	.type	_Z18check_links_cyclicP6recordl, @function
_Z18check_links_cyclicP6recordl:
.LFB81:
	.cfi_startproc
	pushq	%rbp
	.cfi_def_cfa_offset 16
	.cfi_offset 6, -16
	movq	%rsi, %rbp
	pushq	%rbx
	.cfi_def_cfa_offset 24
	.cfi_offset 3, -24
	movq	%rdi, %rbx
	movl	$1, %edi
	subq	$8, %rsp
	.cfi_def_cfa_offset 32
	call	calloc
	testq	%rbp, %rbp
	jle	.L21
	cmpb	$0, (%rax)
	movq	%rbx, %rcx
	jne	.L16
	leaq	-1(%rbp), %r8
	movq	%rbx, %rdi
	xorl	%esi, %esi
	movq	%rax, %rdx
	andl	$3, %r8d
	je	.L17
	movq	(%rbx), %rdi
	movb	$1, (%rax)
	movl	$1, %esi
	movq	%rdi, %rdx
	subq	%rbx, %rdx
	cmpq	$-63, %rdx
	jl	.L110
	sarq	$6, %rdx
	cmpq	%rdx, %rbp
	jle	.L111
	addq	%rax, %rdx
	cmpb	$0, (%rdx)
	jne	.L16
	cmpq	$1, %r8
	je	.L17
	cmpq	$2, %r8
	je	.L95
	movq	(%rdi), %rdi
	movb	$1, (%rdx)
	movl	$2, %esi
	movq	%rdi, %rdx
	subq	%rbx, %rdx
	cmpq	$-63, %rdx
	jl	.L110
	sarq	$6, %rdx
	cmpq	%rdx, %rbp
	jle	.L111
	addq	%rax, %rdx
	cmpb	$0, (%rdx)
	jne	.L16
.L95:
	movq	(%rdi), %rdi
	movb	$1, (%rdx)
	addq	$1, %rsi
	movq	%rdi, %rdx
	subq	%rbx, %rdx
	cmpq	$-63, %rdx
	jge	.L115
	jmp	.L110
	.p2align 4,,10
	.p2align 3
.L108:
	movq	%rdi, %rdx
	subq	%rbx, %rdx
	cmpq	$-63, %rdx
	jl	.L110
	sarq	$6, %rdx
	cmpq	%rdx, %rbp
	jle	.L111
	addq	%rax, %rdx
	cmpb	$0, (%rdx)
	jne	.L16
	movq	(%rdi), %r9
	movb	$1, (%rdx)
	movq	%r9, %r10
	subq	%rbx, %r10
	cmpq	$-63, %r10
	jl	.L110
	sarq	$6, %r10
	cmpq	%r10, %rbp
	jle	.L111
	addq	%rax, %r10
	cmpb	$0, (%r10)
	jne	.L16
	movq	(%r9), %r11
	movb	$1, (%r10)
	movq	%r11, %r8
	subq	%rbx, %r8
	cmpq	$-63, %r8
	jl	.L110
	sarq	$6, %r8
	cmpq	%r8, %rbp
	jle	.L111
	addq	%rax, %r8
	cmpb	$0, (%r8)
	jne	.L16
	movq	(%r11), %rdi
	movb	$1, (%r8)
	addq	$3, %rsi
	movq	%rdi, %rdx
	subq	%rbx, %rdx
	cmpq	$-63, %rdx
	jl	.L110
.L115:
	sarq	$6, %rdx
	cmpq	%rdx, %rbp
	jle	.L111
	addq	%rax, %rdx
	cmpb	$0, (%rdx)
	jne	.L16
.L17:
	addq	$1, %rsi
	movb	$1, (%rdx)
	movq	(%rdi), %rdi
	cmpq	%rsi, %rbp
	jne	.L108
	cmpb	$0, (%rax)
	je	.L23
	leaq	-1(%rbp), %rsi
	xorl	%r9d, %r9d
	andl	$7, %esi
	je	.L20
	movq	(%rbx), %rbx
	movl	$1, %r9d
	movq	%rbx, %r10
	subq	%rcx, %r10
	sarq	$6, %r10
	cmpb	$0, (%rax,%r10)
	je	.L23
	cmpq	$1, %rsi
	je	.L20
	cmpq	$2, %rsi
	je	.L84
	cmpq	$3, %rsi
	je	.L85
	cmpq	$4, %rsi
	je	.L86
	cmpq	$5, %rsi
	je	.L87
	cmpq	$6, %rsi
	je	.L88
	movq	(%rbx), %rbx
	addq	$1, %r9
	movq	%rbx, %r11
	subq	%rcx, %r11
	sarq	$6, %r11
	cmpb	$0, (%rax,%r11)
	je	.L23
.L88:
	movq	(%rbx), %rbx
	addq	$1, %r9
	movq	%rbx, %r8
	subq	%rcx, %r8
	sarq	$6, %r8
	cmpb	$0, (%rax,%r8)
	je	.L23
.L87:
	movq	(%rbx), %rbx
	addq	$1, %r9
	movq	%rbx, %rdi
	subq	%rcx, %rdi
	sarq	$6, %rdi
	cmpb	$0, (%rax,%rdi)
	je	.L23
.L86:
	movq	(%rbx), %rbx
	addq	$1, %r9
	movq	%rbx, %rdx
	subq	%rcx, %rdx
	sarq	$6, %rdx
	cmpb	$0, (%rax,%rdx)
	je	.L23
.L85:
	movq	(%rbx), %rbx
	addq	$1, %r9
	movq	%rbx, %rsi
	subq	%rcx, %rsi
	sarq	$6, %rsi
	cmpb	$0, (%rax,%rsi)
	je	.L23
.L84:
	movq	(%rbx), %rbx
	addq	$1, %r9
.L117:
	movq	%rbx, %r10
	subq	%rcx, %r10
	sarq	$6, %r10
	cmpb	$0, (%rax,%r10)
	je	.L23
.L20:
	leaq	1(%r9), %r11
	movq	(%rbx), %rbx
	cmpq	%r11, %rbp
	je	.L21
	movq	%rbx, %r8
	subq	%rcx, %r8
	sarq	$6, %r8
	cmpb	$0, (%rax,%r8)
	je	.L23
	movq	(%rbx), %rdi
	movq	%rdi, %rdx
	subq	%rcx, %rdx
	sarq	$6, %rdx
	cmpb	$0, (%rax,%rdx)
	je	.L23
	movq	(%rdi), %r10
	movq	%r10, %rsi
	subq	%rcx, %rsi
	sarq	$6, %rsi
	cmpb	$0, (%rax,%rsi)
	je	.L23
	movq	(%r10), %rbx
	movq	%rbx, %r11
	subq	%rcx, %r11
	sarq	$6, %r11
	cmpb	$0, (%rax,%r11)
	je	.L23
	movq	(%rbx), %r8
	movq	%r8, %rdi
	subq	%rcx, %rdi
	sarq	$6, %rdi
	cmpb	$0, (%rax,%rdi)
	je	.L23
	movq	(%r8), %rdx
	movq	%rdx, %r10
	subq	%rcx, %r10
	sarq	$6, %r10
	cmpb	$0, (%rax,%r10)
	je	.L23
	movq	(%rdx), %rbx
	movq	%rbx, %rsi
	subq	%rcx, %rsi
	sarq	$6, %rsi
	cmpb	$0, (%rax,%rsi)
	je	.L23
	movq	(%rbx), %rbx
	addq	$8, %r9
	jmp	.L117
	.p2align 4,,10
	.p2align 3
.L21:
	addq	$8, %rsp
	.cfi_remember_state
	.cfi_def_cfa_offset 24
	movq	%rax, %rdi
	popq	%rbx
	.cfi_def_cfa_offset 16
	popq	%rbp
	.cfi_def_cfa_offset 8
	jmp	free
.L16:
	.cfi_restore_state
	movl	$_ZZ18check_links_cyclicP6recordlE19__PRETTY_FUNCTION__, %ecx
	movl	$71, %edx
	movl	$.LC6, %esi
	movl	$.LC7, %edi
	call	__assert_fail
.L111:
	movl	$_ZZ18check_links_cyclicP6recordlE19__PRETTY_FUNCTION__, %ecx
	movl	$70, %edx
	movl	$.LC6, %esi
	movl	$.LC9, %edi
	call	__assert_fail
.L110:
	movl	$_ZZ18check_links_cyclicP6recordlE19__PRETTY_FUNCTION__, %ecx
	movl	$69, %edx
	movl	$.LC6, %esi
	movl	$.LC8, %edi
	call	__assert_fail
.L23:
	movl	$_ZZ18check_links_cyclicP6recordlE19__PRETTY_FUNCTION__, %ecx
	movl	$77, %edx
	movl	$.LC6, %esi
	movl	$.LC10, %edi
	call	__assert_fail
	.cfi_endproc
.LFE81:
	.size	_Z18check_links_cyclicP6recordl, .-_Z18check_links_cyclicP6recordl
	.section	.text.unlikely
.LCOLDE11:
	.text
.LHOTE11:
	.section	.text.unlikely
.LCOLDB12:
	.text
.LHOTB12:
	.p2align 4,,15
	.globl	_Z8is_primel
	.type	_Z8is_primel, @function
_Z8is_primel:
.LFB82:
	.cfi_startproc
	cmpq	$1, %rdi
	je	.L127
	cmpq	$3, %rdi
	jle	.L125
	testb	$1, %dil
	je	.L127
	movl	$2, %ecx
	jmp	.L122
	.p2align 4,,10
	.p2align 3
.L123:
	movq	%rdi, %rax
	cqto
	idivq	%rcx
	testq	%rdx, %rdx
	je	.L127
.L122:
	addq	$1, %rcx
	movq	%rcx, %rax
	imulq	%rcx, %rax
	cmpq	%rax, %rdi
	jge	.L123
.L125:
	movl	$1, %eax
	ret
	.p2align 4,,10
	.p2align 3
.L127:
	xorl	%eax, %eax
	ret
	.cfi_endproc
.LFE82:
	.size	_Z8is_primel, .-_Z8is_primel
	.section	.text.unlikely
.LCOLDE12:
	.text
.LHOTE12:
	.section	.rodata.str1.1
.LC13:
	.string	"n % 4 == 3"
.LC14:
	.string	"next_idx >= 0"
.LC15:
	.string	"next_idx < n"
.LC16:
	.string	"is_prime(n)"
	.section	.text.unlikely
.LCOLDB17:
	.text
.LHOTB17:
	.p2align 4,,15
	.globl	_Z23randomize_next_pointersP6recordl
	.type	_Z23randomize_next_pointersP6recordl, @function
_Z23randomize_next_pointersP6recordl:
.LFB87:
	.cfi_startproc
	movq	%rsi, %rdx
	subq	$8, %rsp
	.cfi_def_cfa_offset 16
	sarq	$63, %rdx
	shrq	$62, %rdx
	leaq	(%rsi,%rdx), %rax
	andl	$3, %eax
	subq	%rdx, %rax
	cmpq	$3, %rax
	jne	.L191
	cmpq	$1, %rsi
	je	.L131
	cmpq	$3, %rsi
	jle	.L132
	testb	$1, %sil
	je	.L131
	movl	$2, %ecx
	jmp	.L135
	.p2align 4,,10
	.p2align 3
.L136:
	movq	%rsi, %rax
	cqto
	idivq	%rcx
	testq	%rdx, %rdx
	je	.L131
.L135:
	addq	$1, %rcx
	movq	%rcx, %r8
	imulq	%rcx, %r8
	cmpq	%r8, %rsi
	jge	.L136
.L134:
	leaq	-1(%rsi), %r11
	movl	$1, %r8d
	xorl	%eax, %eax
	sarq	%r11
	xorl	%ecx, %ecx
	testb	$1, %sil
	jne	.L145
	cmpq	$0, %r11
	jle	.L155
	movq	%r8, %rax
	subq	%rsi, %rax
	js	.L181
	movq	%rax, %r9
	subq	%rsi, %r9
	cmovns	%r9, %rax
.L156:
	cmpq	%rax, %rsi
	jle	.L182
	movq	%rax, %r10
	movl	$1, %ecx
	movl	$3, %r8d
	salq	$6, %r10
	addq	%rdi, %r10
	movq	%r10, (%rdi)
	cmpq	%rcx, %r11
	jle	.L137
	.p2align 4,,10
	.p2align 3
.L192:
	leaq	1(%rax,%rcx,2), %rdx
	movq	%rdx, %r9
	subq	%rsi, %r9
	js	.L139
	movq	%r9, %rdx
	subq	%rsi, %rdx
	cmovs	%r9, %rdx
.L142:
	cmpq	%rdx, %rsi
	jle	.L182
	movq	%rdx, %r10
	salq	$6, %rax
	addq	$1, %rcx
	salq	$6, %r10
	addq	%rdi, %rax
	addq	$2, %r8
	addq	%rdi, %r10
	movq	%r10, (%rax)
	cmpq	%rcx, %rsi
	je	.L187
	cmpq	%rcx, %r11
	jle	.L162
	leaq	1(%rdx,%rcx,2), %rax
	movq	%rax, %r9
	subq	%rsi, %r9
	js	.L185
	movq	%r9, %rax
	subq	%rsi, %rax
	cmovs	%r9, %rax
.L163:
	cmpq	%rax, %rsi
	jle	.L182
	movq	%rax, %r10
	salq	$6, %rdx
	addq	$1, %rcx
	salq	$6, %r10
	addq	%rdi, %rdx
	addq	$2, %r8
	addq	%rdi, %r10
	movq	%r10, (%rdx)
.L145:
	cmpq	%rcx, %r11
	jg	.L192
.L137:
	je	.L193
	movq	%rax, %rdx
	subq	%r8, %rdx
	jns	.L142
	addq	%rsi, %rdx
	jns	.L142
	addq	%rsi, %rdx
.L139:
	testq	%rdx, %rdx
	jns	.L142
.L177:
	movl	$_ZZ23randomize_next_pointersP6recordlE19__PRETTY_FUNCTION__, %ecx
	movl	$143, %edx
	movl	$.LC6, %esi
	movl	$.LC14, %edi
	call	__assert_fail
	.p2align 4,,10
	.p2align 3
.L131:
	movl	$_ZZ23randomize_next_pointersP6recordlE19__PRETTY_FUNCTION__, %ecx
	movl	$139, %edx
	movl	$.LC6, %esi
	movl	$.LC16, %edi
	call	__assert_fail
	.p2align 4,,10
	.p2align 3
.L162:
	je	.L183
	movq	%rdx, %rax
	subq	%r8, %rax
	jns	.L163
	addq	%rsi, %rax
	jns	.L163
	addq	%rsi, %rax
.L185:
	testq	%rax, %rax
	jns	.L163
	jmp	.L177
	.p2align 4,,10
	.p2align 3
.L193:
	movq	%rsi, %rdx
	subq	%rax, %rdx
	jmp	.L139
	.p2align 4,,10
	.p2align 3
.L183:
	movq	%rsi, %rax
	subq	%rdx, %rax
	jmp	.L185
.L132:
	testq	%rsi, %rsi
	jg	.L134
.L187:
	addq	$8, %rsp
	.cfi_remember_state
	.cfi_def_cfa_offset 8
	ret
	.p2align 4,,10
	.p2align 3
.L155:
	.cfi_restore_state
	movq	%rsi, %rax
	je	.L180
	subq	$1, %rax
	jns	.L156
	addq	%rsi, %rax
.L180:
	testq	%rax, %rax
	jns	.L156
	jmp	.L177
	.p2align 4,,10
	.p2align 3
.L181:
	movl	$1, %eax
	jmp	.L180
.L182:
	movl	$_ZZ23randomize_next_pointersP6recordlE19__PRETTY_FUNCTION__, %ecx
	movl	$144, %edx
	movl	$.LC6, %esi
	movl	$.LC15, %edi
	call	__assert_fail
.L191:
	movl	$_ZZ23randomize_next_pointersP6recordlE19__PRETTY_FUNCTION__, %ecx
	movl	$138, %edx
	movl	$.LC6, %esi
	movl	$.LC13, %edi
	call	__assert_fail
	.cfi_endproc
.LFE87:
	.size	_Z23randomize_next_pointersP6recordl, .-_Z23randomize_next_pointersP6recordl
	.section	.text.unlikely
.LCOLDE17:
	.text
.LHOTE17:
	.section	.text.unlikely
.LCOLDB18:
	.text
.LHOTB18:
	.p2align 4,,15
	.globl	_Z9mk_arraysliP6recordPS0_i
	.type	_Z9mk_arraysliP6recordPS0_i, @function
_Z9mk_arraysliP6recordPS0_i:
.LFB88:
	.cfi_startproc
	testl	%esi, %esi
	jle	.L243
	pushq	%r15
	.cfi_def_cfa_offset 16
	.cfi_offset 15, -16
	leal	-1(%rsi), %eax
	movq	%rcx, %r15
	pushq	%r14
	.cfi_def_cfa_offset 24
	.cfi_offset 14, -24
	movq	%rdx, %r14
	pushq	%r13
	.cfi_def_cfa_offset 32
	.cfi_offset 13, -32
	movq	%rdi, %r13
	pushq	%r12
	.cfi_def_cfa_offset 40
	.cfi_offset 12, -40
	leaq	8(%rcx,%rax,8), %r12
	salq	$6, %r13
	pushq	%rbp
	.cfi_def_cfa_offset 48
	.cfi_offset 6, -48
	movl	%r8d, %ebp
	pushq	%rbx
	.cfi_def_cfa_offset 56
	.cfi_offset 3, -56
	movq	%rdi, %rbx
	subq	$8, %rsp
	.cfi_def_cfa_offset 64
	.p2align 4,,10
	.p2align 3
.L201:
	testq	%rbx, %rbx
	jle	.L199
	leaq	-1(%rbx), %r8
	movl	$1, %esi
	leaq	64(%r14), %rdi
	movq	%rsi, %rax
	andl	$7, %r8d
	cqto
	idivq	%rbx
	salq	$6, %rdx
	addq	%r14, %rdx
	movq	%rdx, (%r14)
	cmpq	$1, %rbx
	je	.L199
	testq	%r8, %r8
	je	.L225
	cmpq	$1, %r8
	je	.L226
	cmpq	$2, %r8
	je	.L227
	cmpq	$3, %r8
	je	.L228
	cmpq	$4, %r8
	je	.L229
	cmpq	$5, %r8
	je	.L230
	cmpq	$6, %r8
	je	.L231
	movl	$2, %esi
	movq	%rsi, %rax
	cqto
	idivq	%rbx
	salq	$6, %rdx
	addq	%r14, %rdx
	movq	%rdx, (%rdi)
	leaq	128(%r14), %rdi
.L231:
	addq	$1, %rsi
	addq	$64, %rdi
	movq	%rsi, %rax
	cqto
	idivq	%rbx
	salq	$6, %rdx
	addq	%r14, %rdx
	movq	%rdx, -64(%rdi)
.L230:
	addq	$1, %rsi
	addq	$64, %rdi
	movq	%rsi, %rax
	cqto
	idivq	%rbx
	salq	$6, %rdx
	addq	%r14, %rdx
	movq	%rdx, -64(%rdi)
.L229:
	addq	$1, %rsi
	addq	$64, %rdi
	movq	%rsi, %rax
	cqto
	idivq	%rbx
	salq	$6, %rdx
	addq	%r14, %rdx
	movq	%rdx, -64(%rdi)
.L228:
	addq	$1, %rsi
	addq	$64, %rdi
	movq	%rsi, %rax
	cqto
	idivq	%rbx
	salq	$6, %rdx
	addq	%r14, %rdx
	movq	%rdx, -64(%rdi)
.L227:
	addq	$1, %rsi
	addq	$64, %rdi
	movq	%rsi, %rax
	cqto
	idivq	%rbx
	salq	$6, %rdx
	addq	%r14, %rdx
	movq	%rdx, -64(%rdi)
.L226:
	addq	$1, %rsi
	addq	$64, %rdi
	movq	%rsi, %rax
	cqto
	idivq	%rbx
	salq	$6, %rdx
	addq	%r14, %rdx
	movq	%rdx, -64(%rdi)
	cmpq	%rsi, %rbx
	je	.L199
.L225:
	leaq	1(%rsi), %rax
	cqto
	idivq	%rbx
	leaq	2(%rsi), %rax
	salq	$6, %rdx
	addq	%r14, %rdx
	movq	%rdx, (%rdi)
	cqto
	idivq	%rbx
	leaq	3(%rsi), %rax
	salq	$6, %rdx
	addq	%r14, %rdx
	movq	%rdx, 64(%rdi)
	cqto
	idivq	%rbx
	leaq	4(%rsi), %rax
	salq	$6, %rdx
	addq	%r14, %rdx
	movq	%rdx, 128(%rdi)
	cqto
	idivq	%rbx
	leaq	5(%rsi), %rax
	salq	$6, %rdx
	addq	%r14, %rdx
	movq	%rdx, 192(%rdi)
	cqto
	idivq	%rbx
	leaq	6(%rsi), %rax
	salq	$6, %rdx
	addq	%r14, %rdx
	movq	%rdx, 256(%rdi)
	cqto
	idivq	%rbx
	leaq	7(%rsi), %rax
	salq	$6, %rdx
	addq	$8, %rsi
	addq	%r14, %rdx
	movq	%rdx, 320(%rdi)
	cqto
	idivq	%rbx
	salq	$6, %rdx
	movq	%rsi, %rax
	addq	%r14, %rdx
	movq	%rdx, 384(%rdi)
	cqto
	idivq	%rbx
	salq	$6, %rdx
	addq	%r14, %rdx
	addq	$512, %rdi
	movq	%rdx, -64(%rdi)
	cmpq	%rsi, %rbx
	jne	.L225
.L199:
	testl	%ebp, %ebp
	jne	.L245
.L198:
	movq	%r14, %rdi
	movq	%rbx, %rsi
	addq	$8, %r15
	call	_Z18check_links_cyclicP6recordl
	movq	%r14, -8(%r15)
	addq	%r13, %r14
	cmpq	%r15, %r12
	jne	.L201
	addq	$8, %rsp
	.cfi_def_cfa_offset 56
	popq	%rbx
	.cfi_restore 3
	.cfi_def_cfa_offset 48
	popq	%rbp
	.cfi_restore 6
	.cfi_def_cfa_offset 40
	popq	%r12
	.cfi_restore 12
	.cfi_def_cfa_offset 32
	popq	%r13
	.cfi_restore 13
	.cfi_def_cfa_offset 24
	popq	%r14
	.cfi_restore 14
	.cfi_def_cfa_offset 16
	popq	%r15
	.cfi_restore 15
	.cfi_def_cfa_offset 8
.L243:
	ret
	.p2align 4,,10
	.p2align 3
.L245:
	.cfi_def_cfa_offset 64
	.cfi_offset 3, -56
	.cfi_offset 6, -48
	.cfi_offset 12, -40
	.cfi_offset 13, -32
	.cfi_offset 14, -24
	.cfi_offset 15, -16
	movq	%rbx, %rsi
	movq	%r14, %rdi
	call	_Z23randomize_next_pointersP6recordl
	jmp	.L198
	.cfi_endproc
.LFE88:
	.size	_Z9mk_arraysliP6recordPS0_i, .-_Z9mk_arraysliP6recordPS0_i
	.section	.text.unlikely
.LCOLDE18:
	.text
.LHOTE18:
	.section	.rodata.str1.1
.LC19:
	.string	"z % 4 == 3"
.LC20:
	.string	"z <= x"
.LC21:
	.string	"0"
	.section	.text.unlikely
.LCOLDB22:
	.text
.LHOTB22:
	.p2align 4,,15
	.globl	_Z10good_primel
	.type	_Z10good_primel, @function
_Z10good_primel:
.LFB95:
	.cfi_startproc
	subq	$8, %rsp
	.cfi_def_cfa_offset 16
	movl	$3, %eax
	cmpq	$2, %rdi
	jg	.L278
	addq	$8, %rsp
	.cfi_remember_state
	.cfi_def_cfa_offset 8
	ret
	.p2align 4,,10
	.p2align 3
.L278:
	.cfi_restore_state
	movq	%rdi, %rax
	andq	$-4, %rax
	leaq	3(%rax), %rsi
	cmpq	%rsi, %rdi
	jl	.L279
	movq	%rsi, %rdx
	andl	$3, %edx
	cmpq	$3, %rdx
	jne	.L258
	.p2align 4,,10
	.p2align 3
.L257:
	cmpq	$1, %rsi
	je	.L251
	cmpq	$3, %rsi
	jle	.L261
	testb	$1, %sil
	je	.L253
	movl	$2, %r9d
	jmp	.L255
	.p2align 4,,10
	.p2align 3
.L275:
	movq	%rsi, %rax
	cqto
	idivq	%r9
	testq	%rdx, %rdx
	je	.L253
.L255:
	addq	$1, %r9
	movq	%r9, %rdi
	imulq	%r9, %rdi
	cmpq	%rsi, %rdi
	jle	.L275
.L261:
	movq	%rsi, %rax
	addq	$8, %rsp
	.cfi_remember_state
	.cfi_def_cfa_offset 8
	ret
.L279:
	.cfi_restore_state
	leaq	-1(%rax), %rsi
	movq	%rsi, %rcx
	sarq	$63, %rcx
	shrq	$62, %rcx
	leaq	(%rsi,%rcx), %r8
	andl	$3, %r8d
	subq	%rcx, %r8
	cmpq	$3, %r8
	jne	.L258
	cmpq	%rsi, %rdi
	jl	.L250
	testq	%rsi, %rsi
	jg	.L257
.L251:
	movl	$_ZZ10good_primelE19__PRETTY_FUNCTION__, %ecx
	movl	$384, %edx
	movl	$.LC6, %esi
	movl	$.LC21, %edi
	call	__assert_fail
	.p2align 4,,10
	.p2align 3
.L253:
	subq	$4, %rsi
	jne	.L257
	jmp	.L251
.L258:
	movl	$_ZZ10good_primelE19__PRETTY_FUNCTION__, %ecx
	movl	$378, %edx
	movl	$.LC6, %esi
	movl	$.LC19, %edi
	call	__assert_fail
.L250:
	movl	$_ZZ10good_primelE19__PRETTY_FUNCTION__, %ecx
	movl	$379, %edx
	movl	$.LC6, %esi
	movl	$.LC20, %edi
	call	__assert_fail
	.cfi_endproc
.LFE95:
	.size	_Z10good_primel, .-_Z10good_primel
	.section	.text.unlikely
.LCOLDE22:
	.text
.LHOTE22:
	.section	.text.unlikely
.LCOLDB23:
	.text
.LHOTB23:
	.p2align 4,,15
	.globl	_Z13get_n_threadsv
	.type	_Z13get_n_threadsv, @function
_Z13get_n_threadsv:
.LFB96:
	.cfi_startproc
	jmp	omp_get_max_threads
	.cfi_endproc
.LFE96:
	.size	_Z13get_n_threadsv, .-_Z13get_n_threadsv
	.section	.text.unlikely
.LCOLDE23:
	.text
.LHOTE23:
	.section	.text.unlikely
.LCOLDB24:
	.text
.LHOTB24:
	.p2align 4,,15
	.globl	_Z8get_rankv
	.type	_Z8get_rankv, @function
_Z8get_rankv:
.LFB97:
	.cfi_startproc
	jmp	omp_get_thread_num
	.cfi_endproc
.LFE97:
	.size	_Z8get_rankv, .-_Z8get_rankv
	.section	.text.unlikely
.LCOLDE24:
	.text
.LHOTE24:
	.section	.text.unlikely
.LCOLDB25:
	.text
.LHOTB25:
	.p2align 4,,15
	.globl	_Z7barrierv
	.type	_Z7barrierv, @function
_Z7barrierv:
.LFB98:
	.cfi_startproc
	jmp	GOMP_barrier
	.cfi_endproc
.LFE98:
	.size	_Z7barrierv, .-_Z7barrierv
	.section	.text.unlikely
.LCOLDE25:
	.text
.LHOTE25:
	.section	.rodata.str1.1
.LC26:
	.string	"sequential"
.LC27:
	.string	"random"
.LC28:
	.string	"traverse"
	.section	.text.unlikely
.LCOLDB29:
	.text
.LHOTB29:
	.p2align 4,,15
	.globl	_Z23canonical_method_stringPKc
	.type	_Z23canonical_method_stringPKc, @function
_Z23canonical_method_stringPKc:
.LFB100:
	.cfi_startproc
	movzbl	(%rdi), %edx
	movl	$.LC27, %eax
	cmpb	$114, %dl
	je	.L289
	cmpb	$115, %dl
	movl	$.LC28, %ecx
	movl	$.LC26, %eax
	cmovne	%rcx, %rax
.L289:
	ret
	.cfi_endproc
.LFE100:
	.size	_Z23canonical_method_stringPKc, .-_Z23canonical_method_stringPKc
	.section	.text.unlikely
.LCOLDE29:
	.text
.LHOTE29:
	.section	.rodata.str1.1
.LC30:
	.string	"usage:\n"
.LC31:
	.string	"  %s [options]\n"
.LC32:
	.string	"options:\n"
	.section	.rodata.str1.8,"aMS",@progbits,1
	.align 8
.LC33:
	.string	"  -m,--method traverse/sequential/random (%s)\n"
	.section	.rodata.str1.1
.LC34:
	.string	"  -n,--n_elements N (%ld)\n"
.LC35:
	.string	"  -c,--n_chains N (%ld)\n"
.LC36:
	.string	"  -s,--n_scans N (%ld)\n"
.LC37:
	.string	"  -r,--repeat N (%d)\n"
.LC38:
	.string	"  -x,--shuffle 0/1 (%d)\n"
.LC39:
	.string	"  -p,--payload 0/1 (%d)\n"
	.section	.text.unlikely
.LCOLDB40:
	.text
.LHOTB40:
	.p2align 4,,15
	.globl	_Z5usagePc
	.type	_Z5usagePc, @function
_Z5usagePc:
.LFB104:
	.cfi_startproc
	movq	stderr(%rip), %rcx
	pushq	%rbx
	.cfi_def_cfa_offset 16
	.cfi_offset 3, -16
	movl	$7, %edx
	movq	%rdi, %rbx
	movl	$1, %esi
	movl	$.LC30, %edi
	call	fwrite
	movq	%rbx, %rcx
	movl	$.LC31, %edx
	xorl	%eax, %eax
	movq	stderr(%rip), %rdi
	movl	$1, %esi
	call	__fprintf_chk
	movl	$9, %edx
	movl	$1, %esi
	movq	stderr(%rip), %rcx
	movl	$.LC32, %edi
	call	fwrite
	movq	stderr(%rip), %rdi
	movl	$.LC28, %ecx
	xorl	%eax, %eax
	movl	$.LC33, %edx
	movl	$1, %esi
	call	__fprintf_chk
	movq	stderr(%rip), %rdi
	movl	$512, %ecx
	xorl	%eax, %eax
	movl	$.LC34, %edx
	movl	$1, %esi
	call	__fprintf_chk
	movq	stderr(%rip), %rdi
	movl	$1, %ecx
	xorl	%eax, %eax
	movl	$.LC35, %edx
	movl	$1, %esi
	call	__fprintf_chk
	xorl	%ecx, %ecx
	movl	$.LC36, %edx
	xorl	%eax, %eax
	movq	stderr(%rip), %rdi
	movl	$1, %esi
	call	__fprintf_chk
	movq	stderr(%rip), %rdi
	movl	$3, %ecx
	xorl	%eax, %eax
	movl	$.LC37, %edx
	movl	$1, %esi
	call	__fprintf_chk
	movq	stderr(%rip), %rdi
	movl	$1, %ecx
	xorl	%eax, %eax
	movl	$.LC38, %edx
	movl	$1, %esi
	call	__fprintf_chk
	popq	%rbx
	.cfi_def_cfa_offset 8
	movl	$1, %ecx
	movl	$.LC39, %edx
	movq	stderr(%rip), %rdi
	movl	$1, %esi
	xorl	%eax, %eax
	jmp	__fprintf_chk
	.cfi_endproc
.LFE104:
	.size	_Z5usagePc, .-_Z5usagePc
	.section	.text.unlikely
.LCOLDE40:
	.text
.LHOTE40:
	.section	.rodata.str1.1
.LC41:
	.string	"m:n:c:s:r:x:p:"
	.section	.text.unlikely
.LCOLDB42:
	.text
.LHOTB42:
	.p2align 4,,15
	.globl	_Z13parse_cmdlineiPKPcP4opts
	.type	_Z13parse_cmdlineiPKPcP4opts, @function
_Z13parse_cmdlineiPKPcP4opts:
.LFB105:
	.cfi_startproc
	pushq	%r12
	.cfi_def_cfa_offset 16
	.cfi_offset 12, -16
	movq	%rdx, %r12
	pushq	%rbp
	.cfi_def_cfa_offset 24
	.cfi_offset 6, -24
	movl	%edi, %ebp
	pushq	%rbx
	.cfi_def_cfa_offset 32
	.cfi_offset 3, -32
	movq	%rsi, %rbx
	subq	$16, %rsp
	.cfi_def_cfa_offset 48
	movq	%fs:40, %rax
	movq	%rax, 8(%rsp)
	xorl	%eax, %eax
	.p2align 4,,10
	.p2align 3
.L304:
	leaq	4(%rsp), %r8
	movq	%rbx, %rsi
	movl	%ebp, %edi
	movl	$0, 4(%rsp)
	movl	$_ZZ13parse_cmdlineiPKPcP4optsE12long_options, %ecx
	movl	$.LC41, %edx
	call	getopt_long
	cmpl	$-1, %eax
	je	.L293
	subl	$99, %eax
	cmpl	$21, %eax
	ja	.L294
	jmp	*.L296(,%rax,8)
	.section	.rodata
	.align 8
	.align 4
.L296:
	.quad	.L295
	.quad	.L294
	.quad	.L294
	.quad	.L294
	.quad	.L294
	.quad	.L294
	.quad	.L294
	.quad	.L294
	.quad	.L294
	.quad	.L294
	.quad	.L297
	.quad	.L298
	.quad	.L294
	.quad	.L299
	.quad	.L294
	.quad	.L300
	.quad	.L301
	.quad	.L294
	.quad	.L294
	.quad	.L294
	.quad	.L294
	.quad	.L302
	.text
	.p2align 4,,10
	.p2align 3
.L302:
	movq	optarg(%rip), %rdi
	movl	$10, %edx
	xorl	%esi, %esi
	call	strtol
	movl	%eax, 36(%r12)
	jmp	.L304
	.p2align 4,,10
	.p2align 3
.L301:
	movq	optarg(%rip), %rdi
	movl	$10, %edx
	xorl	%esi, %esi
	call	strtol
	movq	%rax, 24(%r12)
	jmp	.L304
	.p2align 4,,10
	.p2align 3
.L300:
	movq	optarg(%rip), %rdi
	movl	$10, %edx
	xorl	%esi, %esi
	call	strtol
	movl	%eax, 32(%r12)
	jmp	.L304
	.p2align 4,,10
	.p2align 3
.L299:
	movq	optarg(%rip), %rdi
	movl	$10, %edx
	xorl	%esi, %esi
	call	strtol
	movl	%eax, 40(%r12)
	jmp	.L304
	.p2align 4,,10
	.p2align 3
.L298:
	movq	optarg(%rip), %rdi
	movl	$10, %edx
	xorl	%esi, %esi
	call	strtol
	movq	%rax, 8(%r12)
	jmp	.L304
	.p2align 4,,10
	.p2align 3
.L297:
	movq	optarg(%rip), %rdi
	call	strdup
	movq	%rax, (%r12)
	jmp	.L304
	.p2align 4,,10
	.p2align 3
.L295:
	movq	optarg(%rip), %rdi
	movl	$10, %edx
	xorl	%esi, %esi
	call	strtol
	cltq
	movq	%rax, 16(%r12)
	jmp	.L304
	.p2align 4,,10
	.p2align 3
.L294:
	movq	(%rbx), %rdi
	call	_Z5usagePc
	movl	$1, %edi
	call	exit
	.p2align 4,,10
	.p2align 3
.L293:
	movq	8(%rsp), %rcx
	xorq	%fs:40, %rcx
	movq	%r12, %rax
	jne	.L308
	addq	$16, %rsp
	.cfi_remember_state
	.cfi_def_cfa_offset 32
	popq	%rbx
	.cfi_def_cfa_offset 24
	popq	%rbp
	.cfi_def_cfa_offset 16
	popq	%r12
	.cfi_def_cfa_offset 8
	ret
.L308:
	.cfi_restore_state
	call	__stack_chk_fail
	.cfi_endproc
.LFE105:
	.size	_Z13parse_cmdlineiPKPcP4opts, .-_Z13parse_cmdlineiPKPcP4opts
	.section	.text.unlikely
.LCOLDE42:
	.text
.LHOTE42:
	.section	.rodata.str1.1
.LC43:
	.string	"mmap"
	.section	.rodata.str1.8
	.align 8
.LC44:
	.string	"%ld elements x %d chains x %ld scans x %d threads = %ld record accesses = %ld loads.\n"
	.section	.rodata.str1.1
.LC45:
	.string	"data: %ld bytes\n"
.LC46:
	.string	"shuffle: %ld\n"
.LC47:
	.string	"payload: %d\n"
.LC48:
	.string	"method: %s\n"
	.section	.text.unlikely
.LCOLDB49:
	.section	.text.startup,"ax",@progbits
.LHOTB49:
	.p2align 4,,15
	.globl	main
	.type	main, @function
main:
.LFB106:
	.cfi_startproc
	pushq	%r15
	.cfi_def_cfa_offset 16
	.cfi_offset 15, -16
	pushq	%r14
	.cfi_def_cfa_offset 24
	.cfi_offset 14, -24
	pushq	%r13
	.cfi_def_cfa_offset 32
	.cfi_offset 13, -32
	pushq	%r12
	.cfi_def_cfa_offset 40
	.cfi_offset 12, -40
	pushq	%rbp
	.cfi_def_cfa_offset 48
	.cfi_offset 6, -48
	pushq	%rbx
	.cfi_def_cfa_offset 56
	.cfi_offset 3, -56
	movl	$3, %ebx
	subq	$168, %rsp
	.cfi_def_cfa_offset 224
	movq	%fs:40, %rax
	movq	%rax, 152(%rsp)
	xorl	%eax, %eax
	leaq	48(%rsp), %rdx
	movq	$.LC28, 48(%rsp)
	movq	$512, 56(%rsp)
	movq	$1, 64(%rsp)
	movq	$0, 72(%rsp)
	movl	$3, 80(%rsp)
	movl	$1, 84(%rsp)
	movl	$1, 88(%rsp)
	call	_Z13parse_cmdlineiPKPcP4opts
	call	omp_get_max_threads
	movq	64(%rsp), %r14
	movslq	%eax, %rdi
	movq	48(%rsp), %rax
	movq	%rdi, %r15
	movslq	%r14d, %rsi
	movq	%rax, (%rsp)
	movq	56(%rsp), %rax
	cqto
	idivq	%rsi
	cqto
	idivq	%rdi
	cmpq	$2, %rax
	jg	.L356
	.p2align 4,,10
	.p2align 3
.L310:
	movslq	84(%rsp), %r11
	movq	72(%rsp), %rbp
	movq	%r11, 8(%rsp)
	testq	%rbp, %rbp
	jne	.L320
	movq	%rsi, %r12
	movl	$33554432, %eax
	imulq	%rbx, %r12
	cqto
	imulq	%rdi, %r12
	idivq	%r12
	leaq	1(%rax), %rbp
.L320:
	imulq	%rbx, %rsi
	movq	%rbp, %rcx
	movl	80(%rsp), %r13d
	xorl	%r9d, %r9d
	movl	$-1, %r8d
	movl	$3, %edx
	movl	88(%rsp), %r12d
	movl	%r13d, 44(%rsp)
	imulq	%rsi, %rdi
	imulq	%rdi, %rcx
	salq	$6, %rdi
	movq	%rdi, %rsi
	movq	%rdi, 16(%rsp)
	xorl	%edi, %edi
	movq	%rcx, 32(%rsp)
	movq	%rcx, 24(%rsp)
	movl	$34, %ecx
	call	mmap
	movq	%rax, %r13
	cmpq	$-1, %rax
	je	.L357
	movq	16(%rsp), %rdx
	xorl	%esi, %esi
	movq	%rax, %rdi
	call	memset
	testl	%r12d, %r12d
	je	.L322
	movq	32(%rsp), %r8
	salq	$6, %r8
	shrq	$5, %r8
	movq	%r8, 24(%rsp)
.L322:
	pushq	24(%rsp)
	.cfi_def_cfa_offset 232
	movl	%r15d, %r9d
	movq	%rbp, %r8
	movl	%r14d, %ecx
	pushq	40(%rsp)
	.cfi_def_cfa_offset 240
	movq	%rbx, %rdx
	movl	$.LC44, %esi
	xorl	%eax, %eax
	movl	$1, %edi
	call	__printf_chk
	popq	%rax
	.cfi_def_cfa_offset 232
	movl	$.LC45, %esi
	movl	$1, %edi
	popq	%rdx
	.cfi_def_cfa_offset 224
	xorl	%eax, %eax
	movq	16(%rsp), %rdx
	call	__printf_chk
	movq	8(%rsp), %rdx
	movl	$.LC46, %esi
	xorl	%eax, %eax
	movl	$1, %edi
	call	__printf_chk
	movl	%r12d, %edx
	movl	$.LC47, %esi
	xorl	%eax, %eax
	movl	$1, %edi
	call	__printf_chk
	movq	(%rsp), %r9
	movl	$.LC27, %edx
	movzbl	(%r9), %r10d
	cmpb	$114, %r10b
	je	.L325
	cmpb	$115, %r10b
	movl	$.LC28, %edx
	movl	$.LC26, %esi
	cmove	%rsi, %rdx
.L325:
	movl	$.LC48, %esi
	movl	$1, %edi
	xorl	%eax, %eax
	call	__printf_chk
	movq	(%rsp), %rdi
	movq	%rbx, 104(%rsp)
	xorl	%ecx, %ecx
	movq	8(%rsp), %rbx
	movl	%r14d, 140(%rsp)
	xorl	%edx, %edx
	movl	44(%rsp), %r14d
	leaq	96(%rsp), %rsi
	movq	%rbp, 120(%rsp)
	movq	%r13, 128(%rsp)
	movq	%rdi, 96(%rsp)
	movl	$main._omp_fn.0, %edi
	movq	%rbx, 112(%rsp)
	movl	%r15d, 136(%rsp)
	movl	%r14d, 144(%rsp)
	movl	%r12d, 148(%rsp)
	call	GOMP_parallel
	xorl	%eax, %eax
	movq	152(%rsp), %rdi
	xorq	%fs:40, %rdi
	jne	.L358
	addq	$168, %rsp
	.cfi_remember_state
	.cfi_def_cfa_offset 56
	popq	%rbx
	.cfi_def_cfa_offset 48
	popq	%rbp
	.cfi_def_cfa_offset 40
	popq	%r12
	.cfi_def_cfa_offset 32
	popq	%r13
	.cfi_def_cfa_offset 24
	popq	%r14
	.cfi_def_cfa_offset 16
	popq	%r15
	.cfi_def_cfa_offset 8
	ret
.L356:
	.cfi_restore_state
	movq	%rax, %rcx
	andq	$-4, %rax
	leaq	3(%rax), %rbx
	cmpq	%rbx, %rcx
	jl	.L359
	movq	%rbx, %rbp
	andl	$3, %ebp
	cmpq	$3, %rbp
	jne	.L327
	.p2align 4,,10
	.p2align 3
.L326:
	cmpq	$1, %rbx
	je	.L314
	cmpq	$3, %rbx
	jle	.L310
	testb	$1, %bl
	je	.L316
	movl	$2, %r10d
	.p2align 4,,10
	.p2align 3
.L318:
	addq	$1, %r10
	movq	%r10, %r9
	imulq	%r10, %r9
	cmpq	%rbx, %r9
	jg	.L310
	movq	%rbx, %rax
	cqto
	idivq	%r10
	testq	%rdx, %rdx
	jne	.L318
.L316:
	subq	$4, %rbx
	jne	.L326
.L314:
	movl	$_ZZ10good_primelE19__PRETTY_FUNCTION__, %ecx
	movl	$384, %edx
	movl	$.LC6, %esi
	movl	$.LC21, %edi
	call	__assert_fail
.L359:
	leaq	-1(%rax), %rbx
	movl	$4, %r8d
	movq	%rbx, %rax
	cqto
	idivq	%r8
	cmpq	$3, %rdx
	jne	.L327
	cmpq	%rbx, %rcx
	jl	.L313
	testq	%rbx, %rbx
	jg	.L326
	jmp	.L314
.L327:
	movl	$_ZZ10good_primelE19__PRETTY_FUNCTION__, %ecx
	movl	$378, %edx
	movl	$.LC6, %esi
	movl	$.LC19, %edi
	call	__assert_fail
.L358:
	call	__stack_chk_fail
.L357:
	movl	$.LC43, %edi
	call	perror
	movl	$1, %edi
	call	exit
.L313:
	movl	$_ZZ10good_primelE19__PRETTY_FUNCTION__, %ecx
	movl	$379, %edx
	movl	$.LC6, %esi
	movl	$.LC20, %edi
	call	__assert_fail
	.cfi_endproc
.LFE106:
	.size	main, .-main
	.section	.text.unlikely
.LCOLDE49:
	.section	.text.startup
.LHOTE49:
	.section	.text.unlikely._Z13access_randomILi1ELi1EEP6recordPS1_ll,"axG",@progbits,_Z13access_randomILi1ELi1EEP6recordPS1_ll,comdat
.LCOLDB50:
	.section	.text._Z13access_randomILi1ELi1EEP6recordPS1_ll,"axG",@progbits,_Z13access_randomILi1ELi1EEP6recordPS1_ll,comdat
.LHOTB50:
	.p2align 4,,15
	.weak	_Z13access_randomILi1ELi1EEP6recordPS1_ll
	.type	_Z13access_randomILi1ELi1EEP6recordPS1_ll, @function
_Z13access_randomILi1ELi1EEP6recordPS1_ll:
.LFB168:
	.cfi_startproc
	testq	%rdx, %rdx
	jle	.L419
	leaq	8(%rsp), %r10
	.cfi_def_cfa 10, 0
	andq	$-32, %rsp
	xorl	%r11d, %r11d
	pushq	-8(%r10)
	leaq	-1(%rsi), %rax
	pushq	%rbp
	leaq	1(%rsi,%rsi), %r9
	.cfi_escape 0x10,0x6,0x2,0x76,0
	movq	%rsp, %rbp
	pushq	%r12
	pushq	%r10
	.cfi_escape 0xf,0x3,0x76,0x70,0x6
	.cfi_escape 0x10,0xc,0x2,0x76,0x78
	pushq	%rbx
	.cfi_escape 0x10,0x3,0x2,0x76,0x68
	movq	%rax, %rbx
	movq	(%rdi), %r8
	shrq	$63, %rbx
	addq	%rbx, %rax
	sarq	%rax
	leaq	(%rax,%rax), %r10
	movq	%rax, %rbx
	.p2align 4,,10
	.p2align 3
.L369:
#APP
# 207 "mem.cc" 1
	# random loop begin (n_chains = $1, payload = $1)
# 0 "" 2
#NO_APP
	xorl	%edi, %edi
	testq	%rbx, %rbx
	jle	.L370
	leaq	-2(%r10), %r12
	xorl	%eax, %eax
	shrq	%r12
	andl	$3, %r12d
	je	.L365
	movl	$1, %ecx
	movq	%rcx, %rdi
	subq	%rsi, %rdi
	js	.L390
	movq	%rdi, %rcx
	subq	%rsi, %rcx
	cmovs	%rdi, %rcx
.L390:
	vmovdqa	(%r8), %ymm0
	movl	$2, %edi
	movq	%rcx, %rax
	vmovdqa	32(%r8), %ymm0
	cmpq	$1, %r12
	je	.L365
	cmpq	$2, %r12
	je	.L406
	leaq	3(%rcx), %rax
	movq	%rax, %r12
	subq	%rsi, %r12
	js	.L392
	movq	%r12, %rax
	subq	%rsi, %rax
	cmovs	%r12, %rax
.L392:
	salq	$6, %rcx
	addq	$2, %rdi
	addq	%r8, %rcx
	vmovdqa	(%rcx), %ymm0
	vmovdqa	32(%rcx), %ymm0
.L406:
	leaq	1(%rdi,%rax), %rcx
	movq	%rcx, %r12
	subq	%rsi, %r12
	js	.L395
	movq	%r12, %rcx
	subq	%rsi, %rcx
	cmovs	%r12, %rcx
.L395:
	salq	$6, %rax
	addq	$2, %rdi
	addq	%r8, %rax
	vmovdqa	(%rax), %ymm0
	vmovdqa	32(%rax), %ymm0
	movq	%rcx, %rax
	jmp	.L365
	.p2align 4,,10
	.p2align 3
.L371:
	leaq	1(%rcx,%rdi), %rax
	movq	%rax, %r12
	subq	%rsi, %r12
	js	.L399
	movq	%r12, %rax
	subq	%rsi, %rax
	cmovs	%r12, %rax
.L399:
	salq	$6, %rcx
	addq	%r8, %rcx
	vmovdqa	(%rcx), %ymm0
	vmovdqa	32(%rcx), %ymm0
	leaq	3(%rdi,%rax), %rcx
	movq	%rcx, %r12
	subq	%rsi, %r12
	js	.L401
	movq	%r12, %rcx
	subq	%rsi, %rcx
	cmovs	%r12, %rcx
.L401:
	salq	$6, %rax
	addq	%r8, %rax
	vmovdqa	(%rax), %ymm0
	vmovdqa	32(%rax), %ymm0
	leaq	5(%rdi,%rcx), %rax
	movq	%rax, %r12
	subq	%rsi, %r12
	js	.L403
	movq	%r12, %rax
	subq	%rsi, %rax
	cmovs	%r12, %rax
.L403:
	salq	$6, %rcx
	addq	$6, %rdi
	addq	%r8, %rcx
	vmovdqa	(%rcx), %ymm0
	vmovdqa	32(%rcx), %ymm0
.L365:
	leaq	1(%rdi,%rax), %rcx
	movq	%rcx, %r12
	subq	%rsi, %r12
	js	.L364
	movq	%r12, %rcx
	subq	%rsi, %rcx
	cmovs	%r12, %rcx
.L364:
	salq	$6, %rax
	addq	$2, %rdi
	addq	%r8, %rax
	vmovdqa	(%rax), %ymm0
	vmovdqa	32(%rax), %ymm0
	cmpq	%r10, %rdi
	jne	.L371
	leaq	1(%rbx), %r12
	movq	%rcx, %rdi
	salq	$6, %rdi
.L363:
	leaq	(%r8,%rdi), %rdi
	movq	%rsi, %rax
	vmovdqa	(%rdi), %ymm0
	subq	%rcx, %rax
	vmovdqa	32(%rdi), %ymm0
	cmpq	%r12, %rsi
	jle	.L372
	leaq	1(%r12,%r12), %rcx
	movq	%r9, %r12
	subq	%rcx, %r12
	subq	$2, %r12
	shrq	%r12
	andl	$3, %r12d
	je	.L368
	movq	%rax, %rdi
	subq	%rcx, %rdi
	js	.L420
.L375:
	salq	$6, %rax
	addq	$2, %rcx
	addq	%r8, %rax
	vmovdqa	(%rax), %ymm0
	vmovdqa	32(%rax), %ymm0
	movq	%rdi, %rax
	cmpq	$1, %r12
	je	.L368
	cmpq	$2, %r12
	je	.L405
	subq	%rcx, %rax
	js	.L421
.L377:
	salq	$6, %rdi
	addq	$2, %rcx
	addq	%r8, %rdi
	vmovdqa	(%rdi), %ymm0
	vmovdqa	32(%rdi), %ymm0
.L405:
	movq	%rax, %r12
	subq	%rcx, %r12
	js	.L422
.L380:
	salq	$6, %rax
	addq	$2, %rcx
	addq	%r8, %rax
	vmovdqa	(%rax), %ymm0
	vmovdqa	32(%rax), %ymm0
	movq	%r12, %rax
	jmp	.L368
	.p2align 4,,10
	.p2align 3
.L367:
	salq	$6, %rax
	addq	$2, %rcx
	addq	%r8, %rax
	vmovdqa	(%rax), %ymm0
	vmovdqa	32(%rax), %ymm0
	cmpq	%r9, %rcx
	je	.L366
	movq	%rdi, %rax
	subq	%rcx, %rax
	js	.L423
.L384:
	salq	$6, %rdi
	movq	%rax, %r12
	addq	%r8, %rdi
	vmovdqa	(%rdi), %ymm0
	vmovdqa	32(%rdi), %ymm0
	leaq	2(%rcx), %rdi
	subq	%rdi, %r12
	movq	%r12, %rdi
	js	.L424
.L386:
	salq	$6, %rax
	movq	%rdi, %r12
	addq	%r8, %rax
	vmovdqa	(%rax), %ymm0
	vmovdqa	32(%rax), %ymm0
	leaq	4(%rcx), %rax
	subq	%rax, %r12
	movq	%r12, %rax
	js	.L425
.L388:
	salq	$6, %rdi
	addq	$6, %rcx
	addq	%r8, %rdi
	vmovdqa	(%rdi), %ymm0
	vmovdqa	32(%rdi), %ymm0
.L368:
	movq	%rax, %rdi
	subq	%rcx, %rdi
	jns	.L367
	addq	%rsi, %rdi
	jns	.L367
	addq	%rsi, %rdi
	jmp	.L367
	.p2align 4,,10
	.p2align 3
.L372:
	movq	%rax, %rdi
.L366:
#APP
# 249 "mem.cc" 1
	# random loop end (n_chains = $1, payload = $1)
# 0 "" 2
#NO_APP
	addq	$1, %r11
	cmpq	%r11, %rdx
	jne	.L369
	salq	$6, %rdi
	vzeroupper
	popq	%rbx
	.cfi_remember_state
	.cfi_restore 3
	leaq	(%r8,%rdi), %rax
	popq	%rdx
	.cfi_restore 10
	.cfi_def_cfa 10, 0
	popq	%r12
	.cfi_restore 12
	popq	%rbp
	.cfi_restore 6
	leaq	-8(%rdx), %rsp
	.cfi_def_cfa 7, 8
	ret
	.p2align 4,,10
	.p2align 3
.L423:
	.cfi_restore_state
	addq	%rsi, %rax
	jns	.L384
	addq	%rsi, %rax
	jmp	.L384
	.p2align 4,,10
	.p2align 3
.L425:
	addq	%rsi, %rax
	jns	.L388
	addq	%rsi, %rax
	jmp	.L388
	.p2align 4,,10
	.p2align 3
.L424:
	addq	%rsi, %rdi
	jns	.L386
	addq	%rsi, %rdi
	jmp	.L386
	.p2align 4,,10
	.p2align 3
.L420:
	addq	%rsi, %rdi
	jns	.L375
	addq	%rsi, %rdi
	jmp	.L375
	.p2align 4,,10
	.p2align 3
.L421:
	addq	%rsi, %rax
	jns	.L377
	addq	%rsi, %rax
	jmp	.L377
	.p2align 4,,10
	.p2align 3
.L422:
	addq	%rsi, %r12
	jns	.L380
	addq	%rsi, %r12
	jmp	.L380
	.p2align 4,,10
	.p2align 3
.L370:
	movl	$1, %r12d
	xorl	%ecx, %ecx
	jmp	.L363
.L419:
	.cfi_def_cfa 7, 8
	.cfi_restore 3
	.cfi_restore 6
	.cfi_restore 12
	movq	(%rdi), %rsi
	xorl	%r8d, %r8d
	leaq	(%rsi,%r8), %rax
	ret
	.cfi_endproc
.LFE168:
	.size	_Z13access_randomILi1ELi1EEP6recordPS1_ll, .-_Z13access_randomILi1ELi1EEP6recordPS1_ll
	.section	.text.unlikely._Z13access_randomILi1ELi1EEP6recordPS1_ll,"axG",@progbits,_Z13access_randomILi1ELi1EEP6recordPS1_ll,comdat
.LCOLDE50:
	.section	.text._Z13access_randomILi1ELi1EEP6recordPS1_ll,"axG",@progbits,_Z13access_randomILi1ELi1EEP6recordPS1_ll,comdat
.LHOTE50:
	.section	.text.unlikely._Z13access_randomILi1ELi0EEP6recordPS1_ll,"axG",@progbits,_Z13access_randomILi1ELi0EEP6recordPS1_ll,comdat
.LCOLDB51:
	.section	.text._Z13access_randomILi1ELi0EEP6recordPS1_ll,"axG",@progbits,_Z13access_randomILi1ELi0EEP6recordPS1_ll,comdat
.LHOTB51:
	.p2align 4,,15
	.weak	_Z13access_randomILi1ELi0EEP6recordPS1_ll
	.type	_Z13access_randomILi1ELi0EEP6recordPS1_ll, @function
_Z13access_randomILi1ELi0EEP6recordPS1_ll:
.LFB171:
	.cfi_startproc
	pushq	%rbp
	.cfi_def_cfa_offset 16
	.cfi_offset 6, -16
	pushq	%rbx
	.cfi_def_cfa_offset 24
	.cfi_offset 3, -24
	testq	%rdx, %rdx
	jle	.L513
	leaq	-1(%rsi), %rax
	movq	(%rdi), %rdi
	xorl	%r9d, %r9d
	leaq	1(%rsi,%rsi), %r11
	movq	%rax, %r10
	shrq	$63, %r10
	addq	%r10, %rax
	sarq	%rax
	leaq	(%rax,%rax), %r8
	movq	%rax, %r10
	.p2align 4,,10
	.p2align 3
.L435:
#APP
# 207 "mem.cc" 1
	# random loop begin (n_chains = $1, payload = $0)
# 0 "" 2
#NO_APP
	xorl	%ebx, %ebx
	testq	%r10, %r10
	jle	.L436
	leaq	-2(%r8), %rbp
	xorl	%eax, %eax
	shrq	%rbp
	andl	$3, %ebp
	je	.L431
	movl	$1, %ecx
	movq	%rcx, %rbx
	subq	%rsi, %rbx
	js	.L476
	movq	%rbx, %rcx
	subq	%rsi, %rcx
	cmovs	%rbx, %rcx
.L476:
	movq	(%rdi), %rax
	movl	$2, %ebx
	movq	%rcx, %rax
	cmpq	$1, %rbp
	je	.L431
	cmpq	$2, %rbp
	je	.L496
	leaq	3(%rcx), %rax
	movq	%rax, %rbp
	subq	%rsi, %rbp
	js	.L478
	movq	%rbp, %rax
	subq	%rsi, %rax
	cmovs	%rbp, %rax
.L478:
	salq	$6, %rcx
	addq	$2, %rbx
	addq	%rdi, %rcx
	movq	(%rcx), %rcx
.L496:
	leaq	1(%rbx,%rax), %rcx
	movq	%rcx, %rbp
	subq	%rsi, %rbp
	js	.L481
	movq	%rbp, %rcx
	subq	%rsi, %rcx
	cmovs	%rbp, %rcx
.L481:
	salq	$6, %rax
	addq	$2, %rbx
	addq	%rdi, %rax
	movq	(%rax), %rax
	movq	%rcx, %rax
	jmp	.L431
	.p2align 4,,10
	.p2align 3
.L437:
	leaq	1(%rcx,%rbx), %rax
	movq	%rax, %rbp
	subq	%rsi, %rbp
	js	.L485
	movq	%rbp, %rax
	subq	%rsi, %rax
	cmovs	%rbp, %rax
.L485:
	salq	$6, %rcx
	addq	%rdi, %rcx
	movq	(%rcx), %rcx
	leaq	3(%rbx,%rax), %rcx
	movq	%rcx, %rbp
	subq	%rsi, %rbp
	js	.L487
	movq	%rbp, %rcx
	subq	%rsi, %rcx
	cmovs	%rbp, %rcx
.L487:
	salq	$6, %rax
	addq	%rdi, %rax
	movq	(%rax), %rax
	leaq	5(%rbx,%rcx), %rax
	movq	%rax, %rbp
	subq	%rsi, %rbp
	js	.L489
	movq	%rbp, %rax
	subq	%rsi, %rax
	cmovs	%rbp, %rax
.L489:
	salq	$6, %rcx
	addq	$6, %rbx
	addq	%rdi, %rcx
	movq	(%rcx), %rcx
.L431:
	leaq	1(%rbx,%rax), %rcx
	movq	%rcx, %rbp
	subq	%rsi, %rbp
	js	.L430
	movq	%rbp, %rcx
	subq	%rsi, %rcx
	cmovs	%rbp, %rcx
.L430:
	salq	$6, %rax
	addq	$2, %rbx
	addq	%rdi, %rax
	movq	(%rax), %rax
	cmpq	%r8, %rbx
	jne	.L437
	leaq	1(%r10), %rbp
	movq	%rcx, %rbx
	salq	$6, %rbx
.L429:
	leaq	(%rdi,%rbx), %rbx
	movq	%rsi, %rax
	subq	%rcx, %rax
	movq	(%rbx), %rcx
	cmpq	%rbp, %rsi
	jle	.L438
	leaq	1(%rbp,%rbp), %rcx
	movq	%r11, %rbx
	subq	%rcx, %rbx
	subq	$2, %rbx
	shrq	%rbx
	andl	$7, %ebx
	je	.L434
	movq	%rax, %rbp
	subq	%rcx, %rbp
	js	.L514
.L441:
	salq	$6, %rax
	addq	$2, %rcx
	addq	%rdi, %rax
	movq	(%rax), %rax
	movq	%rbp, %rax
	cmpq	$1, %rbx
	je	.L434
	cmpq	$2, %rbx
	je	.L491
	cmpq	$3, %rbx
	je	.L492
	cmpq	$4, %rbx
	je	.L493
	cmpq	$5, %rbx
	je	.L494
	cmpq	$6, %rbx
	je	.L495
	subq	%rcx, %rax
	js	.L515
.L443:
	salq	$6, %rbp
	addq	$2, %rcx
	addq	%rdi, %rbp
	movq	0(%rbp), %rbx
.L495:
	movq	%rax, %rbx
	subq	%rcx, %rbx
	js	.L516
.L446:
	salq	$6, %rax
	addq	$2, %rcx
	addq	%rdi, %rax
	movq	(%rax), %rax
	movq	%rbx, %rax
.L494:
	movq	%rax, %rbp
	subq	%rcx, %rbp
	js	.L517
.L449:
	salq	$6, %rax
	addq	$2, %rcx
	addq	%rdi, %rax
	movq	(%rax), %rax
	movq	%rbp, %rax
.L493:
	movq	%rax, %rbx
	subq	%rcx, %rbx
	js	.L518
.L452:
	salq	$6, %rax
	addq	$2, %rcx
	addq	%rdi, %rax
	movq	(%rax), %rax
	movq	%rbx, %rax
.L492:
	movq	%rax, %rbp
	subq	%rcx, %rbp
	js	.L519
.L455:
	salq	$6, %rax
	addq	$2, %rcx
	addq	%rdi, %rax
	movq	(%rax), %rax
	movq	%rbp, %rax
.L491:
	movq	%rax, %rbx
	subq	%rcx, %rbx
	js	.L520
.L458:
	salq	$6, %rax
	addq	$2, %rcx
	addq	%rdi, %rax
	movq	(%rax), %rax
	movq	%rbx, %rax
	jmp	.L434
	.p2align 4,,10
	.p2align 3
.L433:
	salq	$6, %rax
	addq	$2, %rcx
	addq	%rdi, %rax
	movq	(%rax), %rax
	cmpq	%r11, %rcx
	je	.L432
	movq	%rbx, %rax
	subq	%rcx, %rax
	js	.L521
.L462:
	salq	$6, %rbx
	movq	%rax, %rbp
	addq	%rdi, %rbx
	movq	(%rbx), %rbx
	leaq	2(%rcx), %rbx
	subq	%rbx, %rbp
	movq	%rbp, %rbx
	js	.L522
.L464:
	salq	$6, %rax
	movq	%rbx, %rbp
	addq	%rdi, %rax
	movq	(%rax), %rax
	leaq	4(%rcx), %rax
	subq	%rax, %rbp
	movq	%rbp, %rax
	js	.L523
.L466:
	salq	$6, %rbx
	movq	%rax, %rbp
	addq	%rdi, %rbx
	movq	(%rbx), %rbx
	leaq	6(%rcx), %rbx
	subq	%rbx, %rbp
	movq	%rbp, %rbx
	js	.L524
.L468:
	salq	$6, %rax
	movq	%rbx, %rbp
	addq	%rdi, %rax
	movq	(%rax), %rax
	leaq	8(%rcx), %rax
	subq	%rax, %rbp
	movq	%rbp, %rax
	js	.L525
.L470:
	salq	$6, %rbx
	movq	%rax, %rbp
	addq	%rdi, %rbx
	movq	(%rbx), %rbx
	leaq	10(%rcx), %rbx
	subq	%rbx, %rbp
	movq	%rbp, %rbx
	js	.L526
.L472:
	salq	$6, %rax
	movq	%rbx, %rbp
	addq	%rdi, %rax
	movq	(%rax), %rax
	leaq	12(%rcx), %rax
	subq	%rax, %rbp
	movq	%rbp, %rax
	js	.L527
.L474:
	salq	$6, %rbx
	addq	$14, %rcx
	addq	%rdi, %rbx
	movq	(%rbx), %rbx
.L434:
	movq	%rax, %rbx
	subq	%rcx, %rbx
	jns	.L433
	addq	%rsi, %rbx
	jns	.L433
	addq	%rsi, %rbx
	jmp	.L433
	.p2align 4,,10
	.p2align 3
.L438:
	movq	%rax, %rbx
.L432:
#APP
# 249 "mem.cc" 1
	# random loop end (n_chains = $1, payload = $0)
# 0 "" 2
#NO_APP
	addq	$1, %r9
	cmpq	%r9, %rdx
	jne	.L435
	salq	$6, %rbx
	leaq	(%rdi,%rbx), %rax
	popq	%rbx
	.cfi_remember_state
	.cfi_def_cfa_offset 16
	popq	%rbp
	.cfi_def_cfa_offset 8
	ret
	.p2align 4,,10
	.p2align 3
.L521:
	.cfi_restore_state
	addq	%rsi, %rax
	jns	.L462
	addq	%rsi, %rax
	jmp	.L462
	.p2align 4,,10
	.p2align 3
.L523:
	addq	%rsi, %rax
	jns	.L466
	addq	%rsi, %rax
	jmp	.L466
	.p2align 4,,10
	.p2align 3
.L522:
	addq	%rsi, %rbx
	jns	.L464
	addq	%rsi, %rbx
	jmp	.L464
	.p2align 4,,10
	.p2align 3
.L527:
	addq	%rsi, %rax
	jns	.L474
	addq	%rsi, %rax
	jmp	.L474
	.p2align 4,,10
	.p2align 3
.L526:
	addq	%rsi, %rbx
	jns	.L472
	addq	%rsi, %rbx
	jmp	.L472
	.p2align 4,,10
	.p2align 3
.L525:
	addq	%rsi, %rax
	jns	.L470
	addq	%rsi, %rax
	jmp	.L470
	.p2align 4,,10
	.p2align 3
.L524:
	addq	%rsi, %rbx
	jns	.L468
	addq	%rsi, %rbx
	jmp	.L468
	.p2align 4,,10
	.p2align 3
.L519:
	addq	%rsi, %rbp
	jns	.L455
	addq	%rsi, %rbp
	jmp	.L455
	.p2align 4,,10
	.p2align 3
.L518:
	addq	%rsi, %rbx
	jns	.L452
	addq	%rsi, %rbx
	jmp	.L452
	.p2align 4,,10
	.p2align 3
.L514:
	addq	%rsi, %rbp
	jns	.L441
	addq	%rsi, %rbp
	jmp	.L441
	.p2align 4,,10
	.p2align 3
.L517:
	addq	%rsi, %rbp
	jns	.L449
	addq	%rsi, %rbp
	jmp	.L449
	.p2align 4,,10
	.p2align 3
.L516:
	addq	%rsi, %rbx
	jns	.L446
	addq	%rsi, %rbx
	jmp	.L446
	.p2align 4,,10
	.p2align 3
.L515:
	addq	%rsi, %rax
	jns	.L443
	addq	%rsi, %rax
	jmp	.L443
	.p2align 4,,10
	.p2align 3
.L520:
	addq	%rsi, %rbx
	jns	.L458
	addq	%rsi, %rbx
	jmp	.L458
	.p2align 4,,10
	.p2align 3
.L436:
	movl	$1, %ebp
	xorl	%ecx, %ecx
	jmp	.L429
.L513:
	movq	(%rdi), %rdi
	xorl	%ebx, %ebx
	leaq	(%rdi,%rbx), %rax
	popq	%rbx
	.cfi_def_cfa_offset 16
	popq	%rbp
	.cfi_def_cfa_offset 8
	ret
	.cfi_endproc
.LFE171:
	.size	_Z13access_randomILi1ELi0EEP6recordPS1_ll, .-_Z13access_randomILi1ELi0EEP6recordPS1_ll
	.section	.text.unlikely._Z13access_randomILi1ELi0EEP6recordPS1_ll,"axG",@progbits,_Z13access_randomILi1ELi0EEP6recordPS1_ll,comdat
.LCOLDE51:
	.section	.text._Z13access_randomILi1ELi0EEP6recordPS1_ll,"axG",@progbits,_Z13access_randomILi1ELi0EEP6recordPS1_ll,comdat
.LHOTE51:
	.section	.text.unlikely._Z13access_randomILi2ELi1EEP6recordPS1_ll,"axG",@progbits,_Z13access_randomILi2ELi1EEP6recordPS1_ll,comdat
.LCOLDB52:
	.section	.text._Z13access_randomILi2ELi1EEP6recordPS1_ll,"axG",@progbits,_Z13access_randomILi2ELi1EEP6recordPS1_ll,comdat
.LHOTB52:
	.p2align 4,,15
	.weak	_Z13access_randomILi2ELi1EEP6recordPS1_ll
	.type	_Z13access_randomILi2ELi1EEP6recordPS1_ll, @function
_Z13access_randomILi2ELi1EEP6recordPS1_ll:
.LFB174:
	.cfi_startproc
	testq	%rdx, %rdx
	jle	.L587
	leaq	8(%rsp), %r10
	.cfi_def_cfa 10, 0
	andq	$-32, %rsp
	xorl	%r11d, %r11d
	pushq	-8(%r10)
	leaq	-1(%rsi), %rax
	pushq	%rbp
	leaq	1(%rsi,%rsi), %r9
	.cfi_escape 0x10,0x6,0x2,0x76,0
	movq	%rsp, %rbp
	pushq	%r14
	pushq	%r13
	pushq	%r12
	pushq	%r10
	.cfi_escape 0xf,0x3,0x76,0x60,0x6
	.cfi_escape 0x10,0xe,0x2,0x76,0x78
	.cfi_escape 0x10,0xd,0x2,0x76,0x70
	.cfi_escape 0x10,0xc,0x2,0x76,0x68
	pushq	%rbx
	.cfi_escape 0x10,0x3,0x2,0x76,0x58
	movq	%rax, %rbx
	movq	8(%rdi), %r8
	shrq	$63, %rbx
	movq	(%rdi), %rdi
	addq	%rbx, %rax
	sarq	%rax
	leaq	(%rax,%rax), %r10
	movq	%rax, %rbx
	.p2align 4,,10
	.p2align 3
.L537:
#APP
# 207 "mem.cc" 1
	# random loop begin (n_chains = $2, payload = $1)
# 0 "" 2
#NO_APP
	testq	%rbx, %rbx
	jle	.L538
	leaq	-2(%r10), %r13
	xorl	%r14d, %r14d
	xorl	%eax, %eax
	shrq	%r13
	andl	$3, %r13d
	je	.L533
	movl	$1, %ecx
	movq	%rcx, %r12
	subq	%rsi, %r12
	js	.L558
	movq	%r12, %rcx
	subq	%rsi, %rcx
	cmovs	%r12, %rcx
.L558:
	vmovdqa	(%rdi), %ymm0
	movl	$2, %r14d
	movq	%rcx, %rax
	vmovdqa	32(%rdi), %ymm0
	vmovdqa	(%r8), %ymm0
	vmovdqa	32(%r8), %ymm0
	cmpq	$1, %r13
	je	.L533
	cmpq	$2, %r13
	je	.L574
	leaq	3(%rcx), %rax
	movq	%rax, %r13
	subq	%rsi, %r13
	js	.L560
	movq	%r13, %rax
	subq	%rsi, %rax
	cmovs	%r13, %rax
.L560:
	salq	$6, %rcx
	addq	$2, %r14
	leaq	(%rdi,%rcx), %r12
	addq	%r8, %rcx
	vmovdqa	(%r12), %ymm0
	vmovdqa	32(%r12), %ymm0
	vmovdqa	(%rcx), %ymm0
	vmovdqa	32(%rcx), %ymm0
.L574:
	leaq	1(%rax,%r14), %rcx
	movq	%rcx, %r13
	subq	%rsi, %r13
	js	.L563
	movq	%r13, %rcx
	subq	%rsi, %rcx
	cmovs	%r13, %rcx
.L563:
	salq	$6, %rax
	addq	$2, %r14
	leaq	(%rdi,%rax), %r12
	addq	%r8, %rax
	vmovdqa	(%r12), %ymm0
	vmovdqa	32(%r12), %ymm0
	vmovdqa	(%rax), %ymm0
	vmovdqa	32(%rax), %ymm0
	movq	%rcx, %rax
	jmp	.L533
	.p2align 4,,10
	.p2align 3
.L539:
	leaq	1(%r13,%r14), %rcx
	movq	%rcx, %rax
	subq	%rsi, %rax
	js	.L567
	movq	%rax, %rcx
	subq	%rsi, %rcx
	cmovs	%rax, %rcx
.L567:
	salq	$6, %r13
	leaq	(%rdi,%r13), %r12
	addq	%r8, %r13
	leaq	3(%r14,%rcx), %rax
	vmovdqa	(%r12), %ymm0
	vmovdqa	32(%r12), %ymm0
	vmovdqa	0(%r13), %ymm0
	vmovdqa	32(%r13), %ymm0
	movq	%rax, %r13
	subq	%rsi, %r13
	js	.L569
	movq	%r13, %rax
	subq	%rsi, %rax
	cmovs	%r13, %rax
.L569:
	salq	$6, %rcx
	leaq	(%rdi,%rcx), %r12
	addq	%r8, %rcx
	vmovdqa	(%r12), %ymm0
	vmovdqa	32(%r12), %ymm0
	vmovdqa	(%rcx), %ymm0
	vmovdqa	32(%rcx), %ymm0
	leaq	5(%r14,%rax), %rcx
	movq	%rcx, %r13
	subq	%rsi, %r13
	js	.L571
	movq	%r13, %rcx
	subq	%rsi, %rcx
	cmovs	%r13, %rcx
.L571:
	salq	$6, %rax
	addq	$6, %r14
	leaq	(%rdi,%rax), %r12
	addq	%r8, %rax
	vmovdqa	(%r12), %ymm0
	vmovdqa	32(%r12), %ymm0
	vmovdqa	(%rax), %ymm0
	vmovdqa	32(%rax), %ymm0
	movq	%rcx, %rax
.L533:
	leaq	1(%rax,%r14), %r13
	movq	%r13, %rcx
	subq	%rsi, %rcx
	js	.L532
	movq	%rcx, %r13
	subq	%rsi, %r13
	cmovs	%rcx, %r13
.L532:
	salq	$6, %rax
	addq	$2, %r14
	leaq	(%rdi,%rax), %r12
	addq	%r8, %rax
	vmovdqa	(%r12), %ymm0
	vmovdqa	32(%r12), %ymm0
	vmovdqa	(%rax), %ymm0
	vmovdqa	32(%rax), %ymm0
	cmpq	%r10, %r14
	jne	.L539
	leaq	1(%rbx), %r14
	movq	%r13, %rcx
	salq	$6, %rcx
.L531:
	leaq	(%rdi,%rcx), %r12
	movq	%rsi, %rax
	addq	%r8, %rcx
	vmovdqa	(%r12), %ymm0
	subq	%r13, %rax
	vmovdqa	32(%r12), %ymm0
	vmovdqa	(%rcx), %ymm0
	vmovdqa	32(%rcx), %ymm0
	cmpq	%r14, %rsi
	jle	.L540
	leaq	1(%r14,%r14), %r12
	movq	%r9, %r13
	subq	%r12, %r13
	subq	$2, %r13
	shrq	%r13
	andl	$3, %r13d
	je	.L536
	movq	%rax, %rcx
	subq	%r12, %rcx
	js	.L588
.L543:
	salq	$6, %rax
	addq	$2, %r12
	leaq	(%rdi,%rax), %r14
	addq	%r8, %rax
	vmovdqa	(%r14), %ymm0
	vmovdqa	32(%r14), %ymm0
	vmovdqa	(%rax), %ymm0
	vmovdqa	32(%rax), %ymm0
	movq	%rcx, %rax
	cmpq	$1, %r13
	je	.L536
	cmpq	$2, %r13
	je	.L573
	subq	%r12, %rax
	js	.L589
.L545:
	salq	$6, %rcx
	addq	$2, %r12
	leaq	(%rdi,%rcx), %r13
	addq	%r8, %rcx
	vmovdqa	0(%r13), %ymm0
	vmovdqa	32(%r13), %ymm0
	vmovdqa	(%rcx), %ymm0
	vmovdqa	32(%rcx), %ymm0
.L573:
	movq	%rax, %rcx
	subq	%r12, %rcx
	js	.L590
.L548:
	salq	$6, %rax
	addq	$2, %r12
	leaq	(%rdi,%rax), %r14
	addq	%r8, %rax
	vmovdqa	(%r14), %ymm0
	vmovdqa	32(%r14), %ymm0
	vmovdqa	(%rax), %ymm0
	vmovdqa	32(%rax), %ymm0
	movq	%rcx, %rax
	jmp	.L536
	.p2align 4,,10
	.p2align 3
.L535:
	salq	$6, %rax
	addq	$2, %r12
	leaq	(%rdi,%rax), %r13
	addq	%r8, %rax
	vmovdqa	0(%r13), %ymm0
	vmovdqa	32(%r13), %ymm0
	vmovdqa	(%rax), %ymm0
	vmovdqa	32(%rax), %ymm0
	cmpq	%r12, %r9
	je	.L534
	movq	%rcx, %rax
	subq	%r12, %rax
	js	.L591
.L552:
	salq	$6, %rcx
	movq	%rax, %r13
	leaq	(%rdi,%rcx), %r14
	addq	%r8, %rcx
	vmovdqa	(%r14), %ymm0
	vmovdqa	32(%r14), %ymm0
	vmovdqa	(%rcx), %ymm0
	vmovdqa	32(%rcx), %ymm0
	leaq	2(%r12), %rcx
	subq	%rcx, %r13
	movq	%r13, %rcx
	js	.L592
.L554:
	salq	$6, %rax
	movq	%rcx, %r13
	leaq	(%rdi,%rax), %r14
	addq	%r8, %rax
	vmovdqa	(%r14), %ymm0
	vmovdqa	32(%r14), %ymm0
	vmovdqa	(%rax), %ymm0
	vmovdqa	32(%rax), %ymm0
	leaq	4(%r12), %rax
	subq	%rax, %r13
	movq	%r13, %rax
	js	.L593
.L556:
	salq	$6, %rcx
	addq	$6, %r12
	leaq	(%rdi,%rcx), %r14
	addq	%r8, %rcx
	vmovdqa	(%r14), %ymm0
	vmovdqa	32(%r14), %ymm0
	vmovdqa	(%rcx), %ymm0
	vmovdqa	32(%rcx), %ymm0
.L536:
	movq	%rax, %rcx
	subq	%r12, %rcx
	jns	.L535
	addq	%rsi, %rcx
	jns	.L535
	addq	%rsi, %rcx
	jmp	.L535
	.p2align 4,,10
	.p2align 3
.L540:
	movq	%rax, %rcx
.L534:
#APP
# 249 "mem.cc" 1
	# random loop end (n_chains = $2, payload = $1)
# 0 "" 2
#NO_APP
	addq	$1, %r11
	cmpq	%r11, %rdx
	jne	.L537
	salq	$6, %rcx
	vzeroupper
	popq	%rbx
	.cfi_remember_state
	.cfi_restore 3
	leaq	(%r8,%rcx), %rax
	popq	%rdx
	.cfi_restore 10
	.cfi_def_cfa 10, 0
	popq	%r12
	.cfi_restore 12
	popq	%r13
	.cfi_restore 13
	popq	%r14
	.cfi_restore 14
	popq	%rbp
	.cfi_restore 6
	leaq	-8(%rdx), %rsp
	.cfi_def_cfa 7, 8
	ret
	.p2align 4,,10
	.p2align 3
.L591:
	.cfi_restore_state
	addq	%rsi, %rax
	jns	.L552
	addq	%rsi, %rax
	jmp	.L552
	.p2align 4,,10
	.p2align 3
.L593:
	addq	%rsi, %rax
	jns	.L556
	addq	%rsi, %rax
	jmp	.L556
	.p2align 4,,10
	.p2align 3
.L592:
	addq	%rsi, %rcx
	jns	.L554
	addq	%rsi, %rcx
	jmp	.L554
	.p2align 4,,10
	.p2align 3
.L588:
	addq	%rsi, %rcx
	jns	.L543
	addq	%rsi, %rcx
	jmp	.L543
	.p2align 4,,10
	.p2align 3
.L589:
	addq	%rsi, %rax
	jns	.L545
	addq	%rsi, %rax
	jmp	.L545
	.p2align 4,,10
	.p2align 3
.L590:
	addq	%rsi, %rcx
	jns	.L548
	addq	%rsi, %rcx
	jmp	.L548
	.p2align 4,,10
	.p2align 3
.L538:
	xorl	%ecx, %ecx
	movl	$1, %r14d
	xorl	%r13d, %r13d
	jmp	.L531
.L587:
	.cfi_def_cfa 7, 8
	.cfi_restore 3
	.cfi_restore 6
	.cfi_restore 12
	.cfi_restore 13
	.cfi_restore 14
	movq	8(%rdi), %rsi
	xorl	%r8d, %r8d
	leaq	(%rsi,%r8), %rax
	ret
	.cfi_endproc
.LFE174:
	.size	_Z13access_randomILi2ELi1EEP6recordPS1_ll, .-_Z13access_randomILi2ELi1EEP6recordPS1_ll
	.section	.text.unlikely._Z13access_randomILi2ELi1EEP6recordPS1_ll,"axG",@progbits,_Z13access_randomILi2ELi1EEP6recordPS1_ll,comdat
.LCOLDE52:
	.section	.text._Z13access_randomILi2ELi1EEP6recordPS1_ll,"axG",@progbits,_Z13access_randomILi2ELi1EEP6recordPS1_ll,comdat
.LHOTE52:
	.section	.text.unlikely._Z13access_randomILi2ELi0EEP6recordPS1_ll,"axG",@progbits,_Z13access_randomILi2ELi0EEP6recordPS1_ll,comdat
.LCOLDB53:
	.section	.text._Z13access_randomILi2ELi0EEP6recordPS1_ll,"axG",@progbits,_Z13access_randomILi2ELi0EEP6recordPS1_ll,comdat
.LHOTB53:
	.p2align 4,,15
	.weak	_Z13access_randomILi2ELi0EEP6recordPS1_ll
	.type	_Z13access_randomILi2ELi0EEP6recordPS1_ll, @function
_Z13access_randomILi2ELi0EEP6recordPS1_ll:
.LFB177:
	.cfi_startproc
	testq	%rdx, %rdx
	jle	.L653
	leaq	-1(%rsi), %rax
	pushq	%r13
	.cfi_def_cfa_offset 16
	.cfi_offset 13, -16
	xorl	%r11d, %r11d
	pushq	%r12
	.cfi_def_cfa_offset 24
	.cfi_offset 12, -24
	leaq	1(%rsi,%rsi), %r9
	pushq	%rbp
	.cfi_def_cfa_offset 32
	.cfi_offset 6, -32
	pushq	%rbx
	.cfi_def_cfa_offset 40
	.cfi_offset 3, -40
	movq	%rax, %rbx
	movq	8(%rdi), %r8
	shrq	$63, %rbx
	movq	(%rdi), %rdi
	addq	%rbx, %rax
	sarq	%rax
	leaq	(%rax,%rax), %r10
	movq	%rax, %rbx
	.p2align 4,,10
	.p2align 3
.L603:
#APP
# 207 "mem.cc" 1
	# random loop begin (n_chains = $2, payload = $0)
# 0 "" 2
#NO_APP
	xorl	%r13d, %r13d
	testq	%rbx, %rbx
	jle	.L604
	leaq	-2(%r10), %r12
	xorl	%eax, %eax
	shrq	%r12
	andl	$3, %r12d
	je	.L599
	movl	$1, %ecx
	movq	%rcx, %rbp
	subq	%rsi, %rbp
	js	.L624
	movq	%rbp, %rcx
	subq	%rsi, %rcx
	cmovs	%rbp, %rcx
.L624:
	movq	(%rdi), %rax
	movl	$2, %r13d
	movq	(%r8), %rax
	movq	%rcx, %rax
	cmpq	$1, %r12
	je	.L599
	cmpq	$2, %r12
	je	.L640
	leaq	3(%rcx), %rax
	movq	%rax, %r12
	subq	%rsi, %r12
	js	.L626
	movq	%r12, %rax
	subq	%rsi, %rax
	cmovs	%r12, %rax
.L626:
	salq	$6, %rcx
	addq	$2, %r13
	leaq	(%rdi,%rcx), %rbp
	addq	%r8, %rcx
	movq	0(%rbp), %r12
	movq	(%rcx), %rcx
.L640:
	leaq	1(%r13,%rax), %rcx
	movq	%rcx, %r12
	subq	%rsi, %r12
	js	.L629
	movq	%r12, %rcx
	subq	%rsi, %rcx
	cmovs	%r12, %rcx
.L629:
	salq	$6, %rax
	addq	$2, %r13
	leaq	(%rdi,%rax), %rbp
	addq	%r8, %rax
	movq	0(%rbp), %r12
	movq	(%rax), %rax
	movq	%rcx, %rax
	jmp	.L599
	.p2align 4,,10
	.p2align 3
.L605:
	leaq	1(%rcx,%r13), %rax
	movq	%rax, %r12
	subq	%rsi, %r12
	js	.L633
	movq	%r12, %rax
	subq	%rsi, %rax
	cmovs	%r12, %rax
.L633:
	salq	$6, %rcx
	leaq	(%rdi,%rcx), %rbp
	addq	%r8, %rcx
	movq	0(%rbp), %r12
	movq	(%rcx), %rcx
	leaq	3(%r13,%rax), %rcx
	movq	%rcx, %r12
	subq	%rsi, %r12
	js	.L635
	movq	%r12, %rcx
	subq	%rsi, %rcx
	cmovs	%r12, %rcx
.L635:
	salq	$6, %rax
	leaq	(%rdi,%rax), %rbp
	addq	%r8, %rax
	movq	0(%rbp), %r12
	movq	(%rax), %rax
	leaq	5(%r13,%rcx), %rax
	movq	%rax, %r12
	subq	%rsi, %r12
	js	.L637
	movq	%r12, %rax
	subq	%rsi, %rax
	cmovs	%r12, %rax
.L637:
	salq	$6, %rcx
	addq	$6, %r13
	leaq	(%rdi,%rcx), %rbp
	addq	%r8, %rcx
	movq	0(%rbp), %r12
	movq	(%rcx), %rcx
.L599:
	leaq	1(%r13,%rax), %rcx
	movq	%rcx, %r12
	subq	%rsi, %r12
	js	.L598
	movq	%r12, %rcx
	subq	%rsi, %rcx
	cmovs	%r12, %rcx
.L598:
	salq	$6, %rax
	addq	$2, %r13
	leaq	(%rdi,%rax), %rbp
	addq	%r8, %rax
	movq	0(%rbp), %r12
	movq	(%rax), %rax
	cmpq	%r10, %r13
	jne	.L605
	leaq	1(%rbx), %r12
	movq	%rcx, %r13
	salq	$6, %r13
.L597:
	leaq	(%rdi,%r13), %rbp
	movq	%rsi, %rax
	addq	%r8, %r13
	subq	%rcx, %rax
	movq	0(%rbp), %rcx
	movq	0(%r13), %rcx
	cmpq	%r12, %rsi
	jle	.L606
	leaq	1(%r12,%r12), %rbp
	movq	%r9, %r12
	subq	%rbp, %r12
	subq	$2, %r12
	shrq	%r12
	andl	$3, %r12d
	je	.L602
	movq	%rax, %rcx
	subq	%rbp, %rcx
	js	.L654
.L609:
	salq	$6, %rax
	addq	$2, %rbp
	leaq	(%rdi,%rax), %r13
	addq	%r8, %rax
	movq	0(%r13), %r13
	movq	(%rax), %rax
	movq	%rcx, %rax
	cmpq	$1, %r12
	je	.L602
	cmpq	$2, %r12
	je	.L639
	subq	%rbp, %rax
	js	.L655
.L611:
	salq	$6, %rcx
	addq	$2, %rbp
	leaq	(%rdi,%rcx), %r12
	addq	%r8, %rcx
	movq	(%r12), %r12
	movq	(%rcx), %rcx
.L639:
	movq	%rax, %rcx
	subq	%rbp, %rcx
	js	.L656
.L614:
	salq	$6, %rax
	addq	$2, %rbp
	leaq	(%rdi,%rax), %r13
	addq	%r8, %rax
	movq	0(%r13), %r12
	movq	(%rax), %rax
	movq	%rcx, %rax
	jmp	.L602
	.p2align 4,,10
	.p2align 3
.L601:
	salq	$6, %rax
	addq	$2, %rbp
	leaq	(%rdi,%rax), %r12
	addq	%r8, %rax
	movq	(%r12), %r12
	movq	(%rax), %rax
	cmpq	%rbp, %r9
	je	.L600
	movq	%rcx, %r13
	subq	%rbp, %r13
	js	.L657
.L618:
	leaq	2(%rbp), %r12
	movq	%rcx, %rax
	salq	$6, %rax
	leaq	(%rdi,%rax), %rcx
	addq	%r8, %rax
	movq	(%rcx), %rcx
	movq	%r13, %rcx
	movq	(%rax), %rax
	subq	%r12, %rcx
	js	.L658
.L620:
	salq	$6, %r13
	leaq	(%rdi,%r13), %rax
	addq	%r8, %r13
	movq	(%rax), %r12
	leaq	4(%rbp), %r12
	movq	0(%r13), %rax
	movq	%rcx, %r13
	subq	%r12, %r13
	movq	%r13, %rax
	js	.L659
.L622:
	salq	$6, %rcx
	addq	$6, %rbp
	leaq	(%rdi,%rcx), %r12
	addq	%r8, %rcx
	movq	(%r12), %r12
	movq	(%rcx), %rcx
.L602:
	movq	%rax, %rcx
	subq	%rbp, %rcx
	jns	.L601
	addq	%rsi, %rcx
	jns	.L601
	addq	%rsi, %rcx
	jmp	.L601
	.p2align 4,,10
	.p2align 3
.L606:
	movq	%rax, %rcx
.L600:
#APP
# 249 "mem.cc" 1
	# random loop end (n_chains = $2, payload = $0)
# 0 "" 2
#NO_APP
	addq	$1, %r11
	cmpq	%r11, %rdx
	jne	.L603
	movq	%rcx, %rax
	popq	%rbx
	.cfi_remember_state
	.cfi_restore 3
	.cfi_def_cfa_offset 32
	salq	$6, %rax
	popq	%rbp
	.cfi_restore 6
	.cfi_def_cfa_offset 24
	addq	%r8, %rax
	popq	%r12
	.cfi_restore 12
	.cfi_def_cfa_offset 16
	popq	%r13
	.cfi_restore 13
	.cfi_def_cfa_offset 8
	ret
	.p2align 4,,10
	.p2align 3
.L657:
	.cfi_restore_state
	addq	%rsi, %r13
	jns	.L618
	addq	%rsi, %r13
	jmp	.L618
	.p2align 4,,10
	.p2align 3
.L659:
	addq	%rsi, %rax
	jns	.L622
	addq	%rsi, %rax
	jmp	.L622
	.p2align 4,,10
	.p2align 3
.L658:
	addq	%rsi, %rcx
	jns	.L620
	addq	%rsi, %rcx
	jmp	.L620
	.p2align 4,,10
	.p2align 3
.L654:
	addq	%rsi, %rcx
	jns	.L609
	addq	%rsi, %rcx
	jmp	.L609
	.p2align 4,,10
	.p2align 3
.L655:
	addq	%rsi, %rax
	jns	.L611
	addq	%rsi, %rax
	jmp	.L611
	.p2align 4,,10
	.p2align 3
.L656:
	addq	%rsi, %rcx
	jns	.L614
	addq	%rsi, %rcx
	jmp	.L614
	.p2align 4,,10
	.p2align 3
.L604:
	movl	$1, %r12d
	xorl	%ecx, %ecx
	jmp	.L597
.L653:
	.cfi_def_cfa_offset 8
	.cfi_restore 3
	.cfi_restore 6
	.cfi_restore 12
	.cfi_restore 13
	movq	8(%rdi), %rdx
	xorl	%eax, %eax
	addq	%rdx, %rax
	ret
	.cfi_endproc
.LFE177:
	.size	_Z13access_randomILi2ELi0EEP6recordPS1_ll, .-_Z13access_randomILi2ELi0EEP6recordPS1_ll
	.section	.text.unlikely._Z13access_randomILi2ELi0EEP6recordPS1_ll,"axG",@progbits,_Z13access_randomILi2ELi0EEP6recordPS1_ll,comdat
.LCOLDE53:
	.section	.text._Z13access_randomILi2ELi0EEP6recordPS1_ll,"axG",@progbits,_Z13access_randomILi2ELi0EEP6recordPS1_ll,comdat
.LHOTE53:
	.section	.text.unlikely._Z13access_randomILi3ELi1EEP6recordPS1_ll,"axG",@progbits,_Z13access_randomILi3ELi1EEP6recordPS1_ll,comdat
.LCOLDB54:
	.section	.text._Z13access_randomILi3ELi1EEP6recordPS1_ll,"axG",@progbits,_Z13access_randomILi3ELi1EEP6recordPS1_ll,comdat
.LHOTB54:
	.p2align 4,,15
	.weak	_Z13access_randomILi3ELi1EEP6recordPS1_ll
	.type	_Z13access_randomILi3ELi1EEP6recordPS1_ll, @function
_Z13access_randomILi3ELi1EEP6recordPS1_ll:
.LFB180:
	.cfi_startproc
	testq	%rdx, %rdx
	jle	.L707
	leaq	8(%rsp), %r10
	.cfi_def_cfa 10, 0
	andq	$-32, %rsp
	pushq	-8(%r10)
	leaq	-1(%rsi), %rax
	pushq	%rbp
	.cfi_escape 0x10,0x6,0x2,0x76,0
	movq	%rsp, %rbp
	pushq	%r15
	pushq	%r14
	pushq	%r13
	.cfi_escape 0x10,0xf,0x2,0x76,0x78
	.cfi_escape 0x10,0xe,0x2,0x76,0x70
	.cfi_escape 0x10,0xd,0x2,0x76,0x68
	movq	%rax, %r13
	pushq	%r12
	shrq	$63, %r13
	.cfi_escape 0x10,0xc,0x2,0x76,0x60
	xorl	%r12d, %r12d
	pushq	%r10
	.cfi_escape 0xf,0x3,0x76,0x58,0x6
	addq	%r13, %rax
	pushq	%rbx
	.cfi_escape 0x10,0x3,0x2,0x76,0x50
	movq	16(%rdi), %r8
	leaq	1(%rsi,%rsi), %rbx
	sarq	%rax
	movq	(%rdi), %r10
	leaq	(%rax,%rax), %r11
	movq	%rax, %r13
	movq	8(%rdi), %r9
	.p2align 4,,10
	.p2align 3
.L669:
#APP
# 207 "mem.cc" 1
	# random loop begin (n_chains = $3, payload = $1)
# 0 "" 2
#NO_APP
	xorl	%edi, %edi
	testq	%r13, %r13
	jle	.L670
	xorl	%eax, %eax
	testb	$2, %r11b
	jne	.L665
	movl	$1, %eax
	movq	%rax, %rcx
	subq	%rsi, %rcx
	js	.L690
	movq	%rcx, %rax
	subq	%rsi, %rax
	cmovs	%rcx, %rax
.L690:
	vmovdqa	(%r10), %ymm0
	movl	$2, %edi
	vmovdqa	32(%r10), %ymm0
	vmovdqa	(%r9), %ymm0
	vmovdqa	32(%r9), %ymm0
	vmovdqa	(%r8), %ymm0
	vmovdqa	32(%r8), %ymm0
	jmp	.L665
	.p2align 4,,10
	.p2align 3
.L671:
	leaq	1(%rcx,%rdi), %rax
	movq	%rax, %r15
	subq	%rsi, %r15
	js	.L693
	movq	%r15, %rax
	subq	%rsi, %rax
	cmovs	%r15, %rax
.L693:
	salq	$6, %rcx
	addq	$2, %rdi
	leaq	(%r10,%rcx), %r14
	leaq	(%r9,%rcx), %r15
	addq	%r8, %rcx
	vmovdqa	(%r14), %ymm0
	vmovdqa	32(%r14), %ymm0
	vmovdqa	(%r15), %ymm0
	vmovdqa	32(%r15), %ymm0
	vmovdqa	(%rcx), %ymm0
	vmovdqa	32(%rcx), %ymm0
.L665:
	leaq	1(%rdi,%rax), %rcx
	movq	%rcx, %r14
	subq	%rsi, %r14
	js	.L664
	movq	%r14, %rcx
	subq	%rsi, %rcx
	cmovs	%r14, %rcx
.L664:
	salq	$6, %rax
	addq	$2, %rdi
	leaq	(%r10,%rax), %r15
	leaq	(%r9,%rax), %r14
	addq	%r8, %rax
	vmovdqa	(%r15), %ymm0
	vmovdqa	32(%r15), %ymm0
	vmovdqa	(%r14), %ymm0
	vmovdqa	32(%r14), %ymm0
	vmovdqa	(%rax), %ymm0
	vmovdqa	32(%rax), %ymm0
	cmpq	%r11, %rdi
	jne	.L671
	leaq	1(%r13), %r14
	movq	%rcx, %rdi
	salq	$6, %rdi
.L663:
	leaq	(%r10,%rdi), %r15
	movq	%rsi, %rax
	subq	%rcx, %rax
	vmovdqa	(%r15), %ymm0
	leaq	(%r9,%rdi), %rcx
	addq	%r8, %rdi
	vmovdqa	32(%r15), %ymm0
	vmovdqa	(%rcx), %ymm0
	vmovdqa	32(%rcx), %ymm0
	vmovdqa	(%rdi), %ymm0
	vmovdqa	32(%rdi), %ymm0
	cmpq	%r14, %rsi
	jle	.L672
	leaq	1(%r14,%r14), %rdi
	movq	%rbx, %r14
	subq	%rdi, %r14
	subq	$2, %r14
	shrq	%r14
	andl	$3, %r14d
	je	.L668
	movq	%rax, %rcx
	subq	%rdi, %rcx
	js	.L708
.L675:
	salq	$6, %rax
	addq	$2, %rdi
	leaq	(%r10,%rax), %r15
	vmovdqa	(%r15), %ymm0
	vmovdqa	32(%r15), %ymm0
	leaq	(%r9,%rax), %r15
	addq	%r8, %rax
	vmovdqa	(%r15), %ymm0
	vmovdqa	32(%r15), %ymm0
	vmovdqa	(%rax), %ymm0
	vmovdqa	32(%rax), %ymm0
	movq	%rcx, %rax
	cmpq	$1, %r14
	je	.L668
	cmpq	$2, %r14
	je	.L695
	subq	%rdi, %rax
	js	.L709
.L677:
	salq	$6, %rcx
	addq	$2, %rdi
	leaq	(%r10,%rcx), %r14
	leaq	(%r9,%rcx), %r15
	addq	%r8, %rcx
	vmovdqa	(%r14), %ymm0
	vmovdqa	32(%r14), %ymm0
	vmovdqa	(%r15), %ymm0
	vmovdqa	32(%r15), %ymm0
	vmovdqa	(%rcx), %ymm0
	vmovdqa	32(%rcx), %ymm0
.L695:
	movq	%rax, %rcx
	subq	%rdi, %rcx
	js	.L710
.L680:
	salq	$6, %rax
	addq	$2, %rdi
	leaq	(%r10,%rax), %r14
	leaq	(%r9,%rax), %r15
	addq	%r8, %rax
	vmovdqa	(%r14), %ymm0
	vmovdqa	32(%r14), %ymm0
	vmovdqa	(%r15), %ymm0
	vmovdqa	32(%r15), %ymm0
	vmovdqa	(%rax), %ymm0
	vmovdqa	32(%rax), %ymm0
	movq	%rcx, %rax
	jmp	.L668
	.p2align 4,,10
	.p2align 3
.L667:
	salq	$6, %rax
	addq	$2, %rdi
	leaq	(%r10,%rax), %r14
	leaq	(%r9,%rax), %r15
	addq	%r8, %rax
	vmovdqa	(%r14), %ymm0
	vmovdqa	32(%r14), %ymm0
	vmovdqa	(%r15), %ymm0
	vmovdqa	32(%r15), %ymm0
	vmovdqa	(%rax), %ymm0
	vmovdqa	32(%rax), %ymm0
	cmpq	%rdi, %rbx
	je	.L666
	movq	%rcx, %rax
	subq	%rdi, %rax
	js	.L711
.L684:
	salq	$6, %rcx
	leaq	(%r10,%rcx), %r14
	leaq	(%r9,%rcx), %r15
	addq	%r8, %rcx
	vmovdqa	(%r14), %ymm0
	vmovdqa	32(%r14), %ymm0
	movq	%rax, %r14
	vmovdqa	(%r15), %ymm0
	vmovdqa	32(%r15), %ymm0
	vmovdqa	(%rcx), %ymm0
	vmovdqa	32(%rcx), %ymm0
	leaq	2(%rdi), %rcx
	subq	%rcx, %r14
	movq	%r14, %rcx
	js	.L712
.L686:
	salq	$6, %rax
	leaq	(%r10,%rax), %r15
	leaq	(%r9,%rax), %r14
	addq	%r8, %rax
	vmovdqa	(%r15), %ymm0
	vmovdqa	32(%r15), %ymm0
	movq	%rcx, %r15
	vmovdqa	(%r14), %ymm0
	vmovdqa	32(%r14), %ymm0
	vmovdqa	(%rax), %ymm0
	vmovdqa	32(%rax), %ymm0
	leaq	4(%rdi), %rax
	subq	%rax, %r15
	movq	%r15, %rax
	js	.L713
.L688:
	salq	$6, %rcx
	addq	$6, %rdi
	leaq	(%r10,%rcx), %r14
	leaq	(%r9,%rcx), %r15
	addq	%r8, %rcx
	vmovdqa	(%r14), %ymm0
	vmovdqa	32(%r14), %ymm0
	vmovdqa	(%r15), %ymm0
	vmovdqa	32(%r15), %ymm0
	vmovdqa	(%rcx), %ymm0
	vmovdqa	32(%rcx), %ymm0
.L668:
	movq	%rax, %rcx
	subq	%rdi, %rcx
	jns	.L667
	addq	%rsi, %rcx
	jns	.L667
	addq	%rsi, %rcx
	jmp	.L667
	.p2align 4,,10
	.p2align 3
.L672:
	movq	%rax, %rcx
.L666:
#APP
# 249 "mem.cc" 1
	# random loop end (n_chains = $3, payload = $1)
# 0 "" 2
#NO_APP
	addq	$1, %r12
	cmpq	%r12, %rdx
	jne	.L669
	salq	$6, %rcx
	vzeroupper
	popq	%rbx
	.cfi_remember_state
	.cfi_restore 3
	leaq	(%r8,%rcx), %rax
	popq	%rdx
	.cfi_restore 10
	.cfi_def_cfa 10, 0
	popq	%r12
	.cfi_restore 12
	popq	%r13
	.cfi_restore 13
	popq	%r14
	.cfi_restore 14
	popq	%r15
	.cfi_restore 15
	popq	%rbp
	.cfi_restore 6
	leaq	-8(%rdx), %rsp
	.cfi_def_cfa 7, 8
	ret
	.p2align 4,,10
	.p2align 3
.L711:
	.cfi_restore_state
	addq	%rsi, %rax
	jns	.L684
	addq	%rsi, %rax
	jmp	.L684
	.p2align 4,,10
	.p2align 3
.L713:
	addq	%rsi, %rax
	jns	.L688
	addq	%rsi, %rax
	jmp	.L688
	.p2align 4,,10
	.p2align 3
.L712:
	addq	%rsi, %rcx
	jns	.L686
	addq	%rsi, %rcx
	jmp	.L686
	.p2align 4,,10
	.p2align 3
.L708:
	addq	%rsi, %rcx
	jns	.L675
	addq	%rsi, %rcx
	jmp	.L675
	.p2align 4,,10
	.p2align 3
.L709:
	addq	%rsi, %rax
	jns	.L677
	addq	%rsi, %rax
	jmp	.L677
	.p2align 4,,10
	.p2align 3
.L710:
	addq	%rsi, %rcx
	jns	.L680
	addq	%rsi, %rcx
	jmp	.L680
	.p2align 4,,10
	.p2align 3
.L670:
	movl	$1, %r14d
	xorl	%ecx, %ecx
	jmp	.L663
.L707:
	.cfi_def_cfa 7, 8
	.cfi_restore 3
	.cfi_restore 6
	.cfi_restore 12
	.cfi_restore 13
	.cfi_restore 14
	.cfi_restore 15
	movq	16(%rdi), %rsi
	xorl	%r8d, %r8d
	leaq	(%rsi,%r8), %rax
	ret
	.cfi_endproc
.LFE180:
	.size	_Z13access_randomILi3ELi1EEP6recordPS1_ll, .-_Z13access_randomILi3ELi1EEP6recordPS1_ll
	.section	.text.unlikely._Z13access_randomILi3ELi1EEP6recordPS1_ll,"axG",@progbits,_Z13access_randomILi3ELi1EEP6recordPS1_ll,comdat
.LCOLDE54:
	.section	.text._Z13access_randomILi3ELi1EEP6recordPS1_ll,"axG",@progbits,_Z13access_randomILi3ELi1EEP6recordPS1_ll,comdat
.LHOTE54:
	.section	.text.unlikely._Z13access_randomILi3ELi0EEP6recordPS1_ll,"axG",@progbits,_Z13access_randomILi3ELi0EEP6recordPS1_ll,comdat
.LCOLDB55:
	.section	.text._Z13access_randomILi3ELi0EEP6recordPS1_ll,"axG",@progbits,_Z13access_randomILi3ELi0EEP6recordPS1_ll,comdat
.LHOTB55:
	.p2align 4,,15
	.weak	_Z13access_randomILi3ELi0EEP6recordPS1_ll
	.type	_Z13access_randomILi3ELi0EEP6recordPS1_ll, @function
_Z13access_randomILi3ELi0EEP6recordPS1_ll:
.LFB183:
	.cfi_startproc
	pushq	%r14
	.cfi_def_cfa_offset 16
	.cfi_offset 14, -16
	pushq	%r13
	.cfi_def_cfa_offset 24
	.cfi_offset 13, -24
	pushq	%r12
	.cfi_def_cfa_offset 32
	.cfi_offset 12, -32
	xorl	%r12d, %r12d
	pushq	%rbp
	.cfi_def_cfa_offset 40
	.cfi_offset 6, -40
	pushq	%rbx
	.cfi_def_cfa_offset 48
	.cfi_offset 3, -48
	movq	16(%rdi), %rcx
	testq	%rdx, %rdx
	jle	.L716
	leaq	-1(%rsi), %rax
	movq	(%rdi), %r8
	xorl	%r11d, %r11d
	movq	8(%rdi), %rdi
	leaq	1(%rsi,%rsi), %r9
	movq	%rax, %rbx
	shrq	$63, %rbx
	addq	%rbx, %rax
	sarq	%rax
	leaq	(%rax,%rax), %r10
	movq	%rax, %rbx
	.p2align 4,,10
	.p2align 3
.L723:
#APP
# 207 "mem.cc" 1
	# random loop begin (n_chains = $3, payload = $0)
# 0 "" 2
#NO_APP
	xorl	%r14d, %r14d
	testq	%rbx, %rbx
	jle	.L724
	leaq	-2(%r10), %r13
	xorl	%eax, %eax
	shrq	%r13
	andl	$3, %r13d
	je	.L719
	movl	$1, %ebp
	movq	%rbp, %r12
	subq	%rsi, %r12
	js	.L744
	movq	%r12, %rbp
	subq	%rsi, %rbp
	cmovs	%r12, %rbp
.L744:
	movq	(%r8), %rax
	movl	$2, %r14d
	movq	(%rdi), %rax
	movq	(%rcx), %rax
	movq	%rbp, %rax
	cmpq	$1, %r13
	je	.L719
	cmpq	$2, %r13
	je	.L760
	leaq	3(%rbp), %rax
	movq	%rax, %r13
	subq	%rsi, %r13
	js	.L746
	movq	%r13, %rax
	subq	%rsi, %rax
	cmovs	%r13, %rax
.L746:
	salq	$6, %rbp
	addq	$2, %r14
	leaq	(%r8,%rbp), %r12
	movq	(%r12), %r13
	leaq	(%rdi,%rbp), %r13
	addq	%rcx, %rbp
	movq	0(%r13), %r13
	movq	0(%rbp), %rbp
.L760:
	leaq	1(%r14,%rax), %rbp
	movq	%rbp, %r12
	subq	%rsi, %r12
	js	.L749
	movq	%r12, %rbp
	subq	%rsi, %rbp
	cmovs	%r12, %rbp
.L749:
	salq	$6, %rax
	addq	$2, %r14
	leaq	(%r8,%rax), %r13
	leaq	(%rdi,%rax), %r12
	addq	%rcx, %rax
	movq	0(%r13), %r13
	movq	(%r12), %r13
	movq	(%rax), %rax
	movq	%rbp, %rax
	jmp	.L719
	.p2align 4,,10
	.p2align 3
.L725:
	leaq	1(%rbp,%r14), %rax
	movq	%rax, %r12
	subq	%rsi, %r12
	js	.L753
	movq	%r12, %rax
	subq	%rsi, %rax
	cmovs	%r12, %rax
.L753:
	salq	$6, %rbp
	leaq	(%r8,%rbp), %r13
	leaq	(%rdi,%rbp), %r12
	addq	%rcx, %rbp
	movq	0(%r13), %r13
	movq	(%r12), %r13
	movq	0(%rbp), %rbp
	leaq	3(%r14,%rax), %rbp
	movq	%rbp, %r13
	subq	%rsi, %r13
	js	.L755
	movq	%r13, %rbp
	subq	%rsi, %rbp
	cmovs	%r13, %rbp
.L755:
	salq	$6, %rax
	leaq	(%r8,%rax), %r12
	movq	(%r12), %r13
	leaq	(%rdi,%rax), %r13
	addq	%rcx, %rax
	movq	0(%r13), %r13
	movq	(%rax), %rax
	leaq	5(%r14,%rbp), %rax
	movq	%rax, %r12
	subq	%rsi, %r12
	js	.L757
	movq	%r12, %rax
	subq	%rsi, %rax
	cmovs	%r12, %rax
.L757:
	salq	$6, %rbp
	addq	$6, %r14
	leaq	(%r8,%rbp), %r13
	leaq	(%rdi,%rbp), %r12
	addq	%rcx, %rbp
	movq	0(%r13), %r13
	movq	(%r12), %r13
	movq	0(%rbp), %rbp
.L719:
	leaq	1(%r14,%rax), %rbp
	movq	%rbp, %r13
	subq	%rsi, %r13
	js	.L718
	movq	%r13, %rbp
	subq	%rsi, %rbp
	cmovs	%r13, %rbp
.L718:
	salq	$6, %rax
	addq	$2, %r14
	leaq	(%r8,%rax), %r12
	movq	(%r12), %r13
	leaq	(%rdi,%rax), %r13
	addq	%rcx, %rax
	movq	0(%r13), %r13
	movq	(%rax), %rax
	cmpq	%r10, %r14
	jne	.L725
	leaq	1(%rbx), %r13
	movq	%rbp, %r14
	salq	$6, %r14
.L717:
	leaq	(%r8,%r14), %r12
	movq	%rsi, %rax
	subq	%rbp, %rax
	movq	(%r12), %rbp
	leaq	(%rdi,%r14), %rbp
	leaq	(%rcx,%r14), %r14
	movq	0(%rbp), %rbp
	movq	(%r14), %rbp
	cmpq	%r13, %rsi
	jle	.L726
	leaq	1(%r13,%r13), %rbp
	movq	%r9, %r12
	subq	%rbp, %r12
	subq	$2, %r12
	shrq	%r12
	andl	$3, %r12d
	je	.L722
	movq	%rax, %r13
	subq	%rbp, %r13
	js	.L773
.L729:
	salq	$6, %rax
	addq	$2, %rbp
	leaq	(%r8,%rax), %r14
	movq	(%r14), %r14
	leaq	(%rdi,%rax), %r14
	addq	%rcx, %rax
	movq	(%r14), %r14
	movq	(%rax), %rax
	movq	%r13, %rax
	cmpq	$1, %r12
	je	.L722
	cmpq	$2, %r12
	je	.L759
	subq	%rbp, %rax
	js	.L774
.L731:
	movq	%r13, %r12
	addq	$2, %rbp
	salq	$6, %r12
	leaq	(%r8,%r12), %r13
	leaq	(%rdi,%r12), %r14
	addq	%rcx, %r12
	movq	0(%r13), %r13
	movq	(%r14), %r13
	movq	(%r12), %r12
.L759:
	movq	%rax, %r12
	subq	%rbp, %r12
	js	.L775
.L734:
	salq	$6, %rax
	addq	$2, %rbp
	leaq	(%r8,%rax), %r13
	leaq	(%rdi,%rax), %r14
	addq	%rcx, %rax
	movq	0(%r13), %r13
	movq	(%r14), %r13
	movq	(%rax), %rax
	movq	%r12, %rax
	jmp	.L722
	.p2align 4,,10
	.p2align 3
.L721:
	salq	$6, %rax
	addq	$2, %rbp
	leaq	(%r8,%rax), %r13
	leaq	(%rdi,%rax), %r14
	addq	%rcx, %rax
	movq	0(%r13), %r13
	movq	(%r14), %r13
	movq	(%rax), %rax
	cmpq	%rbp, %r9
	je	.L720
	movq	%r12, %rax
	subq	%rbp, %rax
	js	.L776
.L738:
	salq	$6, %r12
	leaq	(%r8,%r12), %r13
	leaq	(%rdi,%r12), %r14
	addq	%rcx, %r12
	movq	0(%r13), %r13
	movq	(%r14), %r13
	movq	%rax, %r13
	movq	(%r12), %r12
	leaq	2(%rbp), %r12
	subq	%r12, %r13
	movq	%r13, %r12
	js	.L777
.L740:
	salq	$6, %rax
	leaq	(%r8,%rax), %r14
	movq	(%r14), %r13
	leaq	(%rdi,%rax), %r13
	addq	%rcx, %rax
	movq	%r12, %r14
	movq	0(%r13), %r13
	movq	(%rax), %rax
	leaq	4(%rbp), %rax
	subq	%rax, %r14
	movq	%r14, %rax
	js	.L778
.L742:
	salq	$6, %r12
	addq	$6, %rbp
	leaq	(%r8,%r12), %r13
	leaq	(%rdi,%r12), %r14
	addq	%rcx, %r12
	movq	0(%r13), %r13
	movq	(%r14), %r13
	movq	(%r12), %r12
.L722:
	movq	%rax, %r12
	subq	%rbp, %r12
	jns	.L721
	addq	%rsi, %r12
	jns	.L721
	addq	%rsi, %r12
	jmp	.L721
	.p2align 4,,10
	.p2align 3
.L726:
	movq	%rax, %r12
.L720:
#APP
# 249 "mem.cc" 1
	# random loop end (n_chains = $3, payload = $0)
# 0 "" 2
#NO_APP
	addq	$1, %r11
	cmpq	%r11, %rdx
	jne	.L723
	salq	$6, %r12
.L716:
	popq	%rbx
	.cfi_remember_state
	.cfi_def_cfa_offset 40
	leaq	(%rcx,%r12), %rax
	popq	%rbp
	.cfi_def_cfa_offset 32
	popq	%r12
	.cfi_def_cfa_offset 24
	popq	%r13
	.cfi_def_cfa_offset 16
	popq	%r14
	.cfi_def_cfa_offset 8
	ret
	.p2align 4,,10
	.p2align 3
.L776:
	.cfi_restore_state
	addq	%rsi, %rax
	jns	.L738
	addq	%rsi, %rax
	jmp	.L738
	.p2align 4,,10
	.p2align 3
.L778:
	addq	%rsi, %rax
	jns	.L742
	addq	%rsi, %rax
	jmp	.L742
	.p2align 4,,10
	.p2align 3
.L777:
	addq	%rsi, %r12
	jns	.L740
	addq	%rsi, %r12
	jmp	.L740
	.p2align 4,,10
	.p2align 3
.L774:
	addq	%rsi, %rax
	jns	.L731
	addq	%rsi, %rax
	jmp	.L731
	.p2align 4,,10
	.p2align 3
.L773:
	addq	%rsi, %r13
	jns	.L729
	addq	%rsi, %r13
	jmp	.L729
	.p2align 4,,10
	.p2align 3
.L775:
	addq	%rsi, %r12
	jns	.L734
	addq	%rsi, %r12
	jmp	.L734
	.p2align 4,,10
	.p2align 3
.L724:
	movl	$1, %r13d
	xorl	%ebp, %ebp
	jmp	.L717
	.cfi_endproc
.LFE183:
	.size	_Z13access_randomILi3ELi0EEP6recordPS1_ll, .-_Z13access_randomILi3ELi0EEP6recordPS1_ll
	.section	.text.unlikely._Z13access_randomILi3ELi0EEP6recordPS1_ll,"axG",@progbits,_Z13access_randomILi3ELi0EEP6recordPS1_ll,comdat
.LCOLDE55:
	.section	.text._Z13access_randomILi3ELi0EEP6recordPS1_ll,"axG",@progbits,_Z13access_randomILi3ELi0EEP6recordPS1_ll,comdat
.LHOTE55:
	.section	.text.unlikely._Z13access_randomILi4ELi1EEP6recordPS1_ll,"axG",@progbits,_Z13access_randomILi4ELi1EEP6recordPS1_ll,comdat
.LCOLDB56:
	.section	.text._Z13access_randomILi4ELi1EEP6recordPS1_ll,"axG",@progbits,_Z13access_randomILi4ELi1EEP6recordPS1_ll,comdat
.LHOTB56:
	.p2align 4,,15
	.weak	_Z13access_randomILi4ELi1EEP6recordPS1_ll
	.type	_Z13access_randomILi4ELi1EEP6recordPS1_ll, @function
_Z13access_randomILi4ELi1EEP6recordPS1_ll:
.LFB186:
	.cfi_startproc
	leaq	8(%rsp), %r10
	.cfi_def_cfa 10, 0
	andq	$-32, %rsp
	xorl	%eax, %eax
	pushq	-8(%r10)
	pushq	%rbp
	.cfi_escape 0x10,0x6,0x2,0x76,0
	movq	%rsp, %rbp
	pushq	%r15
	pushq	%r14
	pushq	%r13
	pushq	%r12
	pushq	%r10
	.cfi_escape 0xf,0x3,0x76,0x58,0x6
	.cfi_escape 0x10,0xf,0x2,0x76,0x78
	.cfi_escape 0x10,0xe,0x2,0x76,0x70
	.cfi_escape 0x10,0xd,0x2,0x76,0x68
	.cfi_escape 0x10,0xc,0x2,0x76,0x60
	pushq	%rbx
	.cfi_escape 0x10,0x3,0x2,0x76,0x50
	movq	%rdx, -56(%rbp)
	movq	24(%rdi), %rcx
	testq	%rdx, %rdx
	jle	.L781
	leaq	-1(%rsi), %rax
	movq	(%rdi), %r9
	xorl	%r13d, %r13d
	movq	8(%rdi), %r8
	leaq	1(%rsi,%rsi), %r12
	movq	%rax, %r15
	shrq	$63, %r15
	movq	16(%rdi), %rdi
	addq	%r15, %rax
	sarq	%rax
	leaq	(%rax,%rax), %rbx
	movq	%rax, %r15
	.p2align 4,,10
	.p2align 3
.L788:
#APP
# 207 "mem.cc" 1
	# random loop begin (n_chains = $4, payload = $1)
# 0 "" 2
#NO_APP
	xorl	%r14d, %r14d
	testq	%r15, %r15
	jle	.L789
	xorl	%eax, %eax
	testb	$2, %bl
	jne	.L784
	movl	$1, %eax
	movq	%rax, %rdx
	subq	%rsi, %rdx
	js	.L809
	movq	%rdx, %rax
	subq	%rsi, %rax
	cmovs	%rdx, %rax
.L809:
	vmovdqa	(%r9), %ymm0
	movl	$2, %r14d
	vmovdqa	32(%r9), %ymm0
	vmovdqa	(%r8), %ymm0
	vmovdqa	32(%r8), %ymm0
	vmovdqa	(%rdi), %ymm0
	vmovdqa	32(%rdi), %ymm0
	vmovdqa	(%rcx), %ymm0
	vmovdqa	32(%rcx), %ymm0
	jmp	.L784
	.p2align 4,,10
	.p2align 3
.L790:
	leaq	1(%rdx,%r14), %rax
	movq	%rax, %r11
	subq	%rsi, %r11
	js	.L812
	movq	%r11, %rax
	subq	%rsi, %rax
	cmovs	%r11, %rax
.L812:
	salq	$6, %rdx
	addq	$2, %r14
	leaq	(%r9,%rdx), %r10
	vmovdqa	(%r10), %ymm0
	leaq	(%r8,%rdx), %r11
	vmovdqa	32(%r10), %ymm0
	leaq	(%rdi,%rdx), %r10
	addq	%rcx, %rdx
	vmovdqa	(%r11), %ymm0
	vmovdqa	32(%r11), %ymm0
	vmovdqa	(%r10), %ymm0
	vmovdqa	32(%r10), %ymm0
	vmovdqa	(%rdx), %ymm0
	vmovdqa	32(%rdx), %ymm0
.L784:
	leaq	1(%r14,%rax), %rdx
	movq	%rdx, %r11
	subq	%rsi, %r11
	js	.L783
	movq	%r11, %rdx
	subq	%rsi, %rdx
	cmovs	%r11, %rdx
.L783:
	salq	$6, %rax
	addq	$2, %r14
	leaq	(%r9,%rax), %r10
	vmovdqa	(%r10), %ymm0
	leaq	(%r8,%rax), %r11
	vmovdqa	32(%r10), %ymm0
	leaq	(%rdi,%rax), %r10
	addq	%rcx, %rax
	vmovdqa	(%r11), %ymm0
	vmovdqa	32(%r11), %ymm0
	vmovdqa	(%r10), %ymm0
	vmovdqa	32(%r10), %ymm0
	vmovdqa	(%rax), %ymm0
	vmovdqa	32(%rax), %ymm0
	cmpq	%rbx, %r14
	jne	.L790
	leaq	1(%r15), %r11
	movq	%rdx, %r14
	salq	$6, %r14
.L782:
	leaq	(%r9,%r14), %r10
	movq	%rsi, %rax
	vmovdqa	(%r10), %ymm0
	subq	%rdx, %rax
	vmovdqa	32(%r10), %ymm0
	leaq	(%r8,%r14), %rdx
	leaq	(%rdi,%r14), %r10
	addq	%rcx, %r14
	vmovdqa	(%rdx), %ymm0
	vmovdqa	32(%rdx), %ymm0
	vmovdqa	(%r10), %ymm0
	vmovdqa	32(%r10), %ymm0
	vmovdqa	(%r14), %ymm0
	vmovdqa	32(%r14), %ymm0
	cmpq	%r11, %rsi
	jle	.L791
	leaq	1(%r11,%r11), %rdx
	movq	%r12, %r11
	subq	%rdx, %r11
	subq	$2, %r11
	shrq	%r11
	andl	$3, %r11d
	je	.L787
	movq	%rax, %r10
	subq	%rdx, %r10
	js	.L826
.L794:
	salq	$6, %rax
	addq	$2, %rdx
	leaq	(%r9,%rax), %r14
	vmovdqa	(%r14), %ymm0
	vmovdqa	32(%r14), %ymm0
	leaq	(%r8,%rax), %r14
	vmovdqa	(%r14), %ymm0
	vmovdqa	32(%r14), %ymm0
	leaq	(%rdi,%rax), %r14
	addq	%rcx, %rax
	vmovdqa	(%r14), %ymm0
	vmovdqa	32(%r14), %ymm0
	vmovdqa	(%rax), %ymm0
	vmovdqa	32(%rax), %ymm0
	movq	%r10, %rax
	cmpq	$1, %r11
	je	.L787
	cmpq	$2, %r11
	je	.L814
	subq	%rdx, %rax
	js	.L827
.L796:
	salq	$6, %r10
	addq	$2, %rdx
	leaq	(%r9,%r10), %r11
	vmovdqa	(%r11), %ymm0
	leaq	(%r8,%r10), %r14
	vmovdqa	32(%r11), %ymm0
	leaq	(%rdi,%r10), %r11
	addq	%rcx, %r10
	vmovdqa	(%r14), %ymm0
	vmovdqa	32(%r14), %ymm0
	vmovdqa	(%r11), %ymm0
	vmovdqa	32(%r11), %ymm0
	vmovdqa	(%r10), %ymm0
	vmovdqa	32(%r10), %ymm0
.L814:
	movq	%rax, %r10
	subq	%rdx, %r10
	js	.L828
.L799:
	salq	$6, %rax
	addq	$2, %rdx
	leaq	(%r9,%rax), %r14
	vmovdqa	(%r14), %ymm0
	leaq	(%r8,%rax), %r11
	vmovdqa	32(%r14), %ymm0
	leaq	(%rdi,%rax), %r14
	addq	%rcx, %rax
	vmovdqa	(%r11), %ymm0
	vmovdqa	32(%r11), %ymm0
	vmovdqa	(%r14), %ymm0
	vmovdqa	32(%r14), %ymm0
	vmovdqa	(%rax), %ymm0
	vmovdqa	32(%rax), %ymm0
	movq	%r10, %rax
	jmp	.L787
	.p2align 4,,10
	.p2align 3
.L786:
	salq	$6, %rax
	addq	$2, %rdx
	leaq	(%r9,%rax), %r11
	vmovdqa	(%r11), %ymm0
	leaq	(%r8,%rax), %r14
	vmovdqa	32(%r11), %ymm0
	leaq	(%rdi,%rax), %r11
	addq	%rcx, %rax
	vmovdqa	(%r14), %ymm0
	vmovdqa	32(%r14), %ymm0
	vmovdqa	(%r11), %ymm0
	vmovdqa	32(%r11), %ymm0
	vmovdqa	(%rax), %ymm0
	vmovdqa	32(%rax), %ymm0
	cmpq	%rdx, %r12
	je	.L785
	movq	%r10, %rax
	subq	%rdx, %rax
	js	.L829
.L803:
	salq	$6, %r10
	leaq	(%r9,%r10), %r14
	vmovdqa	(%r14), %ymm0
	leaq	(%r8,%r10), %r11
	vmovdqa	32(%r14), %ymm0
	leaq	(%rdi,%r10), %r14
	addq	%rcx, %r10
	vmovdqa	(%r11), %ymm0
	vmovdqa	32(%r11), %ymm0
	movq	%rax, %r11
	vmovdqa	(%r14), %ymm0
	vmovdqa	32(%r14), %ymm0
	vmovdqa	(%r10), %ymm0
	vmovdqa	32(%r10), %ymm0
	leaq	2(%rdx), %r10
	subq	%r10, %r11
	movq	%r11, %r10
	js	.L830
.L805:
	salq	$6, %rax
	leaq	(%r9,%rax), %r14
	vmovdqa	(%r14), %ymm0
	leaq	(%r8,%rax), %r11
	vmovdqa	32(%r14), %ymm0
	leaq	(%rdi,%rax), %r14
	addq	%rcx, %rax
	vmovdqa	(%r11), %ymm0
	vmovdqa	32(%r11), %ymm0
	movq	%r10, %r11
	vmovdqa	(%r14), %ymm0
	vmovdqa	32(%r14), %ymm0
	vmovdqa	(%rax), %ymm0
	vmovdqa	32(%rax), %ymm0
	leaq	4(%rdx), %rax
	subq	%rax, %r11
	movq	%r11, %rax
	js	.L831
.L807:
	salq	$6, %r10
	addq	$6, %rdx
	leaq	(%r9,%r10), %r14
	vmovdqa	(%r14), %ymm0
	leaq	(%r8,%r10), %r11
	vmovdqa	32(%r14), %ymm0
	leaq	(%rdi,%r10), %r14
	addq	%rcx, %r10
	vmovdqa	(%r11), %ymm0
	vmovdqa	32(%r11), %ymm0
	vmovdqa	(%r14), %ymm0
	vmovdqa	32(%r14), %ymm0
	vmovdqa	(%r10), %ymm0
	vmovdqa	32(%r10), %ymm0
.L787:
	movq	%rax, %r10
	subq	%rdx, %r10
	jns	.L786
	addq	%rsi, %r10
	jns	.L786
	addq	%rsi, %r10
	jmp	.L786
	.p2align 4,,10
	.p2align 3
.L791:
	movq	%rax, %r10
.L785:
#APP
# 249 "mem.cc" 1
	# random loop end (n_chains = $4, payload = $1)
# 0 "" 2
#NO_APP
	addq	$1, %r13
	cmpq	%r13, -56(%rbp)
	jne	.L788
	movq	%r10, %rax
	salq	$6, %rax
	vzeroupper
.L781:
	addq	%rcx, %rax
	popq	%rbx
	popq	%rsi
	.cfi_remember_state
	.cfi_def_cfa 10, 0
	popq	%r12
	popq	%r13
	popq	%r14
	popq	%r15
	popq	%rbp
	leaq	-8(%rsi), %rsp
	.cfi_def_cfa 7, 8
	ret
	.p2align 4,,10
	.p2align 3
.L829:
	.cfi_restore_state
	addq	%rsi, %rax
	jns	.L803
	addq	%rsi, %rax
	jmp	.L803
	.p2align 4,,10
	.p2align 3
.L831:
	addq	%rsi, %rax
	jns	.L807
	addq	%rsi, %rax
	jmp	.L807
	.p2align 4,,10
	.p2align 3
.L830:
	addq	%rsi, %r10
	jns	.L805
	addq	%rsi, %r10
	jmp	.L805
	.p2align 4,,10
	.p2align 3
.L827:
	addq	%rsi, %rax
	jns	.L796
	addq	%rsi, %rax
	jmp	.L796
	.p2align 4,,10
	.p2align 3
.L826:
	addq	%rsi, %r10
	jns	.L794
	addq	%rsi, %r10
	jmp	.L794
	.p2align 4,,10
	.p2align 3
.L828:
	addq	%rsi, %r10
	jns	.L799
	addq	%rsi, %r10
	jmp	.L799
	.p2align 4,,10
	.p2align 3
.L789:
	movl	$1, %r11d
	xorl	%edx, %edx
	jmp	.L782
	.cfi_endproc
.LFE186:
	.size	_Z13access_randomILi4ELi1EEP6recordPS1_ll, .-_Z13access_randomILi4ELi1EEP6recordPS1_ll
	.section	.text.unlikely._Z13access_randomILi4ELi1EEP6recordPS1_ll,"axG",@progbits,_Z13access_randomILi4ELi1EEP6recordPS1_ll,comdat
.LCOLDE56:
	.section	.text._Z13access_randomILi4ELi1EEP6recordPS1_ll,"axG",@progbits,_Z13access_randomILi4ELi1EEP6recordPS1_ll,comdat
.LHOTE56:
	.section	.text.unlikely._Z13access_randomILi4ELi0EEP6recordPS1_ll,"axG",@progbits,_Z13access_randomILi4ELi0EEP6recordPS1_ll,comdat
.LCOLDB57:
	.section	.text._Z13access_randomILi4ELi0EEP6recordPS1_ll,"axG",@progbits,_Z13access_randomILi4ELi0EEP6recordPS1_ll,comdat
.LHOTB57:
	.p2align 4,,15
	.weak	_Z13access_randomILi4ELi0EEP6recordPS1_ll
	.type	_Z13access_randomILi4ELi0EEP6recordPS1_ll, @function
_Z13access_randomILi4ELi0EEP6recordPS1_ll:
.LFB189:
	.cfi_startproc
	testq	%rdx, %rdx
	jle	.L891
	leaq	-1(%rsi), %rax
	pushq	%r15
	.cfi_def_cfa_offset 16
	.cfi_offset 15, -16
	pushq	%r14
	.cfi_def_cfa_offset 24
	.cfi_offset 14, -24
	leaq	1(%rsi,%rsi), %r10
	pushq	%r13
	.cfi_def_cfa_offset 32
	.cfi_offset 13, -32
	pushq	%r12
	.cfi_def_cfa_offset 40
	.cfi_offset 12, -40
	pushq	%rbp
	.cfi_def_cfa_offset 48
	.cfi_offset 6, -48
	movq	%rax, %rbp
	pushq	%rbx
	.cfi_def_cfa_offset 56
	.cfi_offset 3, -56
	shrq	$63, %rbp
	movq	24(%rdi), %rcx
	xorl	%ebx, %ebx
	movq	(%rdi), %r9
	addq	%rbp, %rax
	movq	8(%rdi), %r8
	sarq	%rax
	movq	16(%rdi), %rdi
	leaq	(%rax,%rax), %r11
	movq	%rax, %rbp
	.p2align 4,,10
	.p2align 3
.L841:
#APP
# 207 "mem.cc" 1
	# random loop begin (n_chains = $4, payload = $0)
# 0 "" 2
#NO_APP
	xorl	%r15d, %r15d
	testq	%rbp, %rbp
	jle	.L842
	leaq	-2(%r11), %r14
	xorl	%eax, %eax
	shrq	%r14
	andl	$3, %r14d
	je	.L837
	movl	$1, %r13d
	movq	%r13, %r12
	subq	%rsi, %r12
	js	.L862
	movq	%r12, %r13
	subq	%rsi, %r13
	cmovs	%r12, %r13
.L862:
	movq	(%r9), %rax
	movl	$2, %r15d
	movq	(%r8), %rax
	movq	(%rdi), %rax
	movq	(%rcx), %rax
	movq	%r13, %rax
	cmpq	$1, %r14
	je	.L837
	cmpq	$2, %r14
	je	.L878
	leaq	3(%r13), %rax
	movq	%rax, %r14
	subq	%rsi, %r14
	js	.L864
	movq	%r14, %rax
	subq	%rsi, %rax
	cmovs	%r14, %rax
.L864:
	salq	$6, %r13
	addq	$2, %r15
	leaq	(%r9,%r13), %r12
	movq	(%r12), %r14
	leaq	(%r8,%r13), %r14
	leaq	(%rdi,%r13), %r12
	addq	%rcx, %r13
	movq	(%r14), %r14
	movq	(%r12), %r14
	movq	0(%r13), %r13
.L878:
	leaq	1(%r15,%rax), %r13
	movq	%r13, %r14
	subq	%rsi, %r14
	js	.L867
	movq	%r14, %r13
	subq	%rsi, %r13
	cmovs	%r14, %r13
.L867:
	salq	$6, %rax
	addq	$2, %r15
	leaq	(%r9,%rax), %r12
	movq	(%r12), %r14
	leaq	(%r8,%rax), %r14
	leaq	(%rdi,%rax), %r12
	addq	%rcx, %rax
	movq	(%r14), %r14
	movq	(%r12), %r14
	movq	(%rax), %rax
	movq	%r13, %rax
	jmp	.L837
	.p2align 4,,10
	.p2align 3
.L843:
	leaq	1(%r13,%r15), %rax
	movq	%rax, %r14
	subq	%rsi, %r14
	js	.L871
	movq	%r14, %rax
	subq	%rsi, %rax
	cmovs	%r14, %rax
.L871:
	salq	$6, %r13
	leaq	(%r9,%r13), %r12
	movq	(%r12), %r14
	leaq	(%r8,%r13), %r14
	leaq	(%rdi,%r13), %r12
	addq	%rcx, %r13
	movq	(%r14), %r14
	movq	(%r12), %r14
	movq	0(%r13), %r13
	leaq	3(%r15,%rax), %r13
	movq	%r13, %r14
	subq	%rsi, %r14
	js	.L873
	movq	%r14, %r13
	subq	%rsi, %r13
	cmovs	%r14, %r13
.L873:
	salq	$6, %rax
	leaq	(%r9,%rax), %r12
	movq	(%r12), %r14
	leaq	(%r8,%rax), %r14
	leaq	(%rdi,%rax), %r12
	addq	%rcx, %rax
	movq	(%r14), %r14
	movq	(%r12), %r14
	movq	(%rax), %rax
	leaq	5(%r15,%r13), %rax
	movq	%rax, %r14
	subq	%rsi, %r14
	js	.L875
	movq	%r14, %rax
	subq	%rsi, %rax
	cmovs	%r14, %rax
.L875:
	salq	$6, %r13
	addq	$6, %r15
	leaq	(%r9,%r13), %r12
	movq	(%r12), %r14
	leaq	(%r8,%r13), %r14
	leaq	(%rdi,%r13), %r12
	addq	%rcx, %r13
	movq	(%r14), %r14
	movq	(%r12), %r14
	movq	0(%r13), %r13
.L837:
	leaq	1(%r15,%rax), %r13
	movq	%r13, %r14
	subq	%rsi, %r14
	js	.L836
	movq	%r14, %r13
	subq	%rsi, %r13
	cmovs	%r14, %r13
.L836:
	salq	$6, %rax
	addq	$2, %r15
	leaq	(%r9,%rax), %r12
	movq	(%r12), %r14
	leaq	(%r8,%rax), %r14
	leaq	(%rdi,%rax), %r12
	addq	%rcx, %rax
	movq	(%r14), %r14
	movq	(%r12), %r14
	movq	(%rax), %rax
	cmpq	%r11, %r15
	jne	.L843
	leaq	1(%rbp), %r14
	movq	%r13, %r15
	salq	$6, %r15
.L835:
	leaq	(%r9,%r15), %r12
	movq	%rsi, %rax
	subq	%r13, %rax
	movq	(%r12), %r13
	leaq	(%rdi,%r15), %r12
	leaq	(%r8,%r15), %r13
	addq	%rcx, %r15
	movq	0(%r13), %r13
	movq	(%r12), %r13
	movq	(%r15), %r12
	cmpq	%rsi, %r14
	jge	.L844
	leaq	1(%r14,%r14), %r12
	movq	%r10, %r13
	subq	%r12, %r13
	subq	$2, %r13
	shrq	%r13
	andl	$3, %r13d
	je	.L840
	movq	%rax, %r14
	subq	%r12, %r14
	js	.L892
.L847:
	salq	$6, %rax
	addq	$2, %r12
	leaq	(%r9,%rax), %r15
	movq	(%r15), %r15
	leaq	(%r8,%rax), %r15
	movq	(%r15), %r15
	leaq	(%rdi,%rax), %r15
	addq	%rcx, %rax
	movq	(%r15), %r15
	movq	(%rax), %rax
	movq	%r14, %rax
	cmpq	$1, %r13
	je	.L840
	cmpq	$2, %r13
	je	.L877
	subq	%r12, %rax
	js	.L893
.L849:
	salq	$6, %r14
	addq	$2, %r12
	movq	%r14, %r13
	leaq	(%r8,%r13), %r15
	leaq	(%r9,%r14), %r14
	movq	(%r14), %r14
	movq	(%r15), %r14
	leaq	(%rdi,%r13), %r14
	addq	%rcx, %r13
	movq	(%r14), %r14
	movq	0(%r13), %r13
.L877:
	movq	%rax, %r13
	subq	%r12, %r13
	js	.L894
.L852:
	salq	$6, %rax
	addq	$2, %r12
	leaq	(%r9,%rax), %r15
	movq	(%r15), %r14
	leaq	(%r8,%rax), %r14
	leaq	(%rdi,%rax), %r15
	addq	%rcx, %rax
	movq	(%r14), %r14
	movq	(%r15), %r14
	movq	(%rax), %rax
	movq	%r13, %rax
	jmp	.L840
	.p2align 4,,10
	.p2align 3
.L839:
	salq	$6, %rax
	addq	$2, %r12
	leaq	(%r9,%rax), %r14
	leaq	(%r8,%rax), %r15
	movq	(%r14), %r14
	movq	(%r15), %r14
	leaq	(%rdi,%rax), %r14
	addq	%rcx, %rax
	movq	(%r14), %r14
	movq	(%rax), %rax
	cmpq	%r12, %r10
	je	.L838
	movq	%r13, %rax
	subq	%r12, %rax
	js	.L895
.L856:
	salq	$6, %r13
	leaq	(%r9,%r13), %r15
	movq	(%r15), %r14
	leaq	(%r8,%r13), %r14
	leaq	(%rdi,%r13), %r15
	addq	%rcx, %r13
	movq	(%r14), %r14
	movq	(%r15), %r14
	movq	%rax, %r14
	movq	0(%r13), %r13
	leaq	2(%r12), %r13
	subq	%r13, %r14
	movq	%r14, %r13
	js	.L896
.L858:
	salq	$6, %rax
	leaq	(%r9,%rax), %r15
	movq	(%r15), %r14
	leaq	(%r8,%rax), %r14
	leaq	(%rdi,%rax), %r15
	addq	%rcx, %rax
	movq	(%r14), %r14
	movq	(%r15), %r14
	movq	%r13, %r14
	movq	(%rax), %rax
	leaq	4(%r12), %rax
	subq	%rax, %r14
	movq	%r14, %rax
	js	.L897
.L860:
	salq	$6, %r13
	addq	$6, %r12
	leaq	(%r9,%r13), %r15
	movq	(%r15), %r14
	leaq	(%r8,%r13), %r14
	leaq	(%rdi,%r13), %r15
	addq	%rcx, %r13
	movq	(%r14), %r14
	movq	(%r15), %r14
	movq	0(%r13), %r13
.L840:
	movq	%rax, %r13
	subq	%r12, %r13
	jns	.L839
	addq	%rsi, %r13
	jns	.L839
	addq	%rsi, %r13
	jmp	.L839
	.p2align 4,,10
	.p2align 3
.L844:
	movq	%rax, %r13
.L838:
#APP
# 249 "mem.cc" 1
	# random loop end (n_chains = $4, payload = $0)
# 0 "" 2
#NO_APP
	addq	$1, %rbx
	cmpq	%rbx, %rdx
	jne	.L841
	movq	%r13, %rax
	popq	%rbx
	.cfi_remember_state
	.cfi_restore 3
	.cfi_def_cfa_offset 48
	salq	$6, %rax
	popq	%rbp
	.cfi_restore 6
	.cfi_def_cfa_offset 40
	addq	%rcx, %rax
	popq	%r12
	.cfi_restore 12
	.cfi_def_cfa_offset 32
	popq	%r13
	.cfi_restore 13
	.cfi_def_cfa_offset 24
	popq	%r14
	.cfi_restore 14
	.cfi_def_cfa_offset 16
	popq	%r15
	.cfi_restore 15
	.cfi_def_cfa_offset 8
	ret
	.p2align 4,,10
	.p2align 3
.L895:
	.cfi_restore_state
	addq	%rsi, %rax
	jns	.L856
	addq	%rsi, %rax
	jmp	.L856
	.p2align 4,,10
	.p2align 3
.L897:
	addq	%rsi, %rax
	jns	.L860
	addq	%rsi, %rax
	jmp	.L860
	.p2align 4,,10
	.p2align 3
.L896:
	addq	%rsi, %r13
	jns	.L858
	addq	%rsi, %r13
	jmp	.L858
	.p2align 4,,10
	.p2align 3
.L892:
	addq	%rsi, %r14
	jns	.L847
	addq	%rsi, %r14
	jmp	.L847
	.p2align 4,,10
	.p2align 3
.L893:
	addq	%rsi, %rax
	jns	.L849
	addq	%rsi, %rax
	jmp	.L849
	.p2align 4,,10
	.p2align 3
.L894:
	addq	%rsi, %r13
	jns	.L852
	addq	%rsi, %r13
	jmp	.L852
	.p2align 4,,10
	.p2align 3
.L842:
	movl	$1, %r14d
	xorl	%r13d, %r13d
	jmp	.L835
.L891:
	.cfi_def_cfa_offset 8
	.cfi_restore 3
	.cfi_restore 6
	.cfi_restore 12
	.cfi_restore 13
	.cfi_restore 14
	.cfi_restore 15
	movq	24(%rdi), %rdx
	xorl	%eax, %eax
	addq	%rdx, %rax
	ret
	.cfi_endproc
.LFE189:
	.size	_Z13access_randomILi4ELi0EEP6recordPS1_ll, .-_Z13access_randomILi4ELi0EEP6recordPS1_ll
	.section	.text.unlikely._Z13access_randomILi4ELi0EEP6recordPS1_ll,"axG",@progbits,_Z13access_randomILi4ELi0EEP6recordPS1_ll,comdat
.LCOLDE57:
	.section	.text._Z13access_randomILi4ELi0EEP6recordPS1_ll,"axG",@progbits,_Z13access_randomILi4ELi0EEP6recordPS1_ll,comdat
.LHOTE57:
	.section	.text.unlikely._Z13access_randomILi5ELi1EEP6recordPS1_ll,"axG",@progbits,_Z13access_randomILi5ELi1EEP6recordPS1_ll,comdat
.LCOLDB58:
	.section	.text._Z13access_randomILi5ELi1EEP6recordPS1_ll,"axG",@progbits,_Z13access_randomILi5ELi1EEP6recordPS1_ll,comdat
.LHOTB58:
	.p2align 4,,15
	.weak	_Z13access_randomILi5ELi1EEP6recordPS1_ll
	.type	_Z13access_randomILi5ELi1EEP6recordPS1_ll, @function
_Z13access_randomILi5ELi1EEP6recordPS1_ll:
.LFB192:
	.cfi_startproc
	leaq	8(%rsp), %r10
	.cfi_def_cfa 10, 0
	andq	$-32, %rsp
	pushq	-8(%r10)
	pushq	%rbp
	.cfi_escape 0x10,0x6,0x2,0x76,0
	movq	%rsp, %rbp
	pushq	%r15
	pushq	%r14
	pushq	%r13
	pushq	%r12
	pushq	%r10
	.cfi_escape 0xf,0x3,0x76,0x58,0x6
	.cfi_escape 0x10,0xf,0x2,0x76,0x78
	.cfi_escape 0x10,0xe,0x2,0x76,0x70
	.cfi_escape 0x10,0xd,0x2,0x76,0x68
	.cfi_escape 0x10,0xc,0x2,0x76,0x60
	pushq	%rbx
	.cfi_escape 0x10,0x3,0x2,0x76,0x50
	movq	%rdx, -56(%rbp)
	movq	32(%rdi), %rcx
	testq	%rdx, %rdx
	jle	.L933
	leaq	-1(%rsi), %rax
	movq	(%rdi), %r10
	xorl	%r12d, %r12d
	movq	8(%rdi), %r9
	leaq	1(%rsi,%rsi), %r11
	movq	%rax, %r13
	shrq	$63, %r13
	movq	16(%rdi), %r8
	movq	24(%rdi), %rdi
	addq	%r13, %rax
	sarq	%rax
	leaq	(%rax,%rax), %rbx
	movq	%rax, %r13
	.p2align 4,,10
	.p2align 3
.L907:
#APP
# 207 "mem.cc" 1
	# random loop begin (n_chains = $5, payload = $1)
# 0 "" 2
#NO_APP
	testq	%r13, %r13
	jle	.L908
	xorl	%r14d, %r14d
	xorl	%edx, %edx
	testb	$2, %bl
	jne	.L903
	movl	$1, %edx
	movq	%rdx, %r14
	subq	%rsi, %r14
	js	.L918
	movq	%r14, %rdx
	subq	%rsi, %rdx
	cmovs	%r14, %rdx
.L918:
	vmovdqa	(%r10), %ymm0
	movl	$2, %r14d
	vmovdqa	32(%r10), %ymm0
	vmovdqa	(%r9), %ymm0
	vmovdqa	32(%r9), %ymm0
	vmovdqa	(%r8), %ymm0
	vmovdqa	32(%r8), %ymm0
	vmovdqa	(%rdi), %ymm0
	vmovdqa	32(%rdi), %ymm0
	vmovdqa	(%rcx), %ymm0
	vmovdqa	32(%rcx), %ymm0
	jmp	.L903
	.p2align 4,,10
	.p2align 3
.L909:
	leaq	1(%rax,%r14), %rdx
	movq	%rdx, %r15
	subq	%rsi, %r15
	js	.L921
	movq	%r15, %rdx
	subq	%rsi, %rdx
	cmovs	%r15, %rdx
.L921:
	salq	$6, %rax
	addq	$2, %r14
	leaq	(%r10,%rax), %r15
	vmovdqa	(%r15), %ymm0
	vmovdqa	32(%r15), %ymm0
	leaq	(%r9,%rax), %r15
	vmovdqa	(%r15), %ymm0
	vmovdqa	32(%r15), %ymm0
	leaq	(%r8,%rax), %r15
	vmovdqa	(%r15), %ymm0
	vmovdqa	32(%r15), %ymm0
	leaq	(%rdi,%rax), %r15
	addq	%rcx, %rax
	vmovdqa	(%r15), %ymm0
	vmovdqa	32(%r15), %ymm0
	vmovdqa	(%rax), %ymm0
	vmovdqa	32(%rax), %ymm0
.L903:
	leaq	1(%r14,%rdx), %rax
	movq	%rax, %r15
	subq	%rsi, %r15
	js	.L902
	movq	%r15, %rax
	subq	%rsi, %rax
	cmovs	%r15, %rax
.L902:
	salq	$6, %rdx
	addq	$2, %r14
	leaq	(%r10,%rdx), %r15
	vmovdqa	(%r15), %ymm0
	vmovdqa	32(%r15), %ymm0
	leaq	(%r9,%rdx), %r15
	vmovdqa	(%r15), %ymm0
	vmovdqa	32(%r15), %ymm0
	leaq	(%r8,%rdx), %r15
	vmovdqa	(%r15), %ymm0
	vmovdqa	32(%r15), %ymm0
	leaq	(%rdi,%rdx), %r15
	addq	%rcx, %rdx
	vmovdqa	(%r15), %ymm0
	vmovdqa	32(%r15), %ymm0
	vmovdqa	(%rdx), %ymm0
	vmovdqa	32(%rdx), %ymm0
	cmpq	%rbx, %r14
	jne	.L909
	leaq	1(%r13), %r14
	movq	%rax, %rdx
	salq	$6, %rdx
.L901:
	movq	%rsi, %r15
	subq	%rax, %r15
	movq	%r15, %rax
	leaq	(%r10,%rdx), %r15
	vmovdqa	(%r15), %ymm0
	vmovdqa	32(%r15), %ymm0
	leaq	(%r9,%rdx), %r15
	vmovdqa	(%r15), %ymm0
	vmovdqa	32(%r15), %ymm0
	leaq	(%r8,%rdx), %r15
	vmovdqa	(%r15), %ymm0
	vmovdqa	32(%r15), %ymm0
	leaq	(%rdi,%rdx), %r15
	addq	%rcx, %rdx
	vmovdqa	(%r15), %ymm0
	vmovdqa	32(%r15), %ymm0
	vmovdqa	(%rdx), %ymm0
	vmovdqa	32(%rdx), %ymm0
	cmpq	%r14, %rsi
	jle	.L910
	leaq	1(%r14,%r14), %r14
	movq	%r11, %rdx
	subq	%r14, %rdx
	andl	$2, %edx
	jne	.L906
	movq	%rax, %rdx
	subq	%r14, %rdx
	js	.L934
.L913:
	salq	$6, %rax
	addq	$2, %r14
	leaq	(%r10,%rax), %r15
	vmovdqa	(%r15), %ymm0
	vmovdqa	32(%r15), %ymm0
	leaq	(%r9,%rax), %r15
	vmovdqa	(%r15), %ymm0
	vmovdqa	32(%r15), %ymm0
	leaq	(%r8,%rax), %r15
	vmovdqa	(%r15), %ymm0
	vmovdqa	32(%r15), %ymm0
	leaq	(%rdi,%rax), %r15
	addq	%rcx, %rax
	vmovdqa	(%r15), %ymm0
	vmovdqa	32(%r15), %ymm0
	vmovdqa	(%rax), %ymm0
	vmovdqa	32(%rax), %ymm0
	movq	%rdx, %rax
	jmp	.L906
	.p2align 4,,10
	.p2align 3
.L905:
	salq	$6, %rax
	addq	$2, %r14
	leaq	(%r10,%rax), %r15
	vmovdqa	(%r15), %ymm0
	vmovdqa	32(%r15), %ymm0
	leaq	(%r9,%rax), %r15
	vmovdqa	(%r15), %ymm0
	vmovdqa	32(%r15), %ymm0
	leaq	(%r8,%rax), %r15
	vmovdqa	(%r15), %ymm0
	vmovdqa	32(%r15), %ymm0
	leaq	(%rdi,%rax), %r15
	addq	%rcx, %rax
	vmovdqa	(%r15), %ymm0
	vmovdqa	32(%r15), %ymm0
	vmovdqa	(%rax), %ymm0
	vmovdqa	32(%rax), %ymm0
	cmpq	%r14, %r11
	je	.L904
	movq	%rdx, %rax
	subq	%r14, %rax
	js	.L935
.L916:
	salq	$6, %rdx
	addq	$2, %r14
	leaq	(%r10,%rdx), %r15
	vmovdqa	(%r15), %ymm0
	vmovdqa	32(%r15), %ymm0
	leaq	(%r9,%rdx), %r15
	vmovdqa	(%r15), %ymm0
	vmovdqa	32(%r15), %ymm0
	leaq	(%r8,%rdx), %r15
	vmovdqa	(%r15), %ymm0
	vmovdqa	32(%r15), %ymm0
	leaq	(%rdi,%rdx), %r15
	addq	%rcx, %rdx
	vmovdqa	(%r15), %ymm0
	vmovdqa	32(%r15), %ymm0
	vmovdqa	(%rdx), %ymm0
	vmovdqa	32(%rdx), %ymm0
.L906:
	movq	%rax, %rdx
	subq	%r14, %rdx
	jns	.L905
	addq	%rsi, %rdx
	jns	.L905
	addq	%rsi, %rdx
	jmp	.L905
	.p2align 4,,10
	.p2align 3
.L935:
	addq	%rsi, %rax
	jns	.L916
	addq	%rsi, %rax
	jmp	.L916
	.p2align 4,,10
	.p2align 3
.L910:
	movq	%rax, %rdx
	.p2align 4,,10
	.p2align 3
.L904:
#APP
# 249 "mem.cc" 1
	# random loop end (n_chains = $5, payload = $1)
# 0 "" 2
#NO_APP
	addq	$1, %r12
	cmpq	%r12, -56(%rbp)
	jne	.L907
	salq	$6, %rdx
	vzeroupper
.L900:
	leaq	(%rcx,%rdx), %rax
	popq	%rbx
	popq	%rsi
	.cfi_remember_state
	.cfi_def_cfa 10, 0
	popq	%r12
	popq	%r13
	popq	%r14
	popq	%r15
	popq	%rbp
	leaq	-8(%rsi), %rsp
	.cfi_def_cfa 7, 8
	ret
	.p2align 4,,10
	.p2align 3
.L934:
	.cfi_restore_state
	addq	%rsi, %rdx
	jns	.L913
	addq	%rsi, %rdx
	jmp	.L913
	.p2align 4,,10
	.p2align 3
.L908:
	xorl	%edx, %edx
	movl	$1, %r14d
	xorl	%eax, %eax
	jmp	.L901
.L933:
	xorl	%edx, %edx
	jmp	.L900
	.cfi_endproc
.LFE192:
	.size	_Z13access_randomILi5ELi1EEP6recordPS1_ll, .-_Z13access_randomILi5ELi1EEP6recordPS1_ll
	.section	.text.unlikely._Z13access_randomILi5ELi1EEP6recordPS1_ll,"axG",@progbits,_Z13access_randomILi5ELi1EEP6recordPS1_ll,comdat
.LCOLDE58:
	.section	.text._Z13access_randomILi5ELi1EEP6recordPS1_ll,"axG",@progbits,_Z13access_randomILi5ELi1EEP6recordPS1_ll,comdat
.LHOTE58:
	.section	.text.unlikely._Z13access_randomILi5ELi0EEP6recordPS1_ll,"axG",@progbits,_Z13access_randomILi5ELi0EEP6recordPS1_ll,comdat
.LCOLDB59:
	.section	.text._Z13access_randomILi5ELi0EEP6recordPS1_ll,"axG",@progbits,_Z13access_randomILi5ELi0EEP6recordPS1_ll,comdat
.LHOTB59:
	.p2align 4,,15
	.weak	_Z13access_randomILi5ELi0EEP6recordPS1_ll
	.type	_Z13access_randomILi5ELi0EEP6recordPS1_ll, @function
_Z13access_randomILi5ELi0EEP6recordPS1_ll:
.LFB195:
	.cfi_startproc
	pushq	%r15
	.cfi_def_cfa_offset 16
	.cfi_offset 15, -16
	xorl	%r11d, %r11d
	pushq	%r14
	.cfi_def_cfa_offset 24
	.cfi_offset 14, -24
	pushq	%r13
	.cfi_def_cfa_offset 32
	.cfi_offset 13, -32
	pushq	%r12
	.cfi_def_cfa_offset 40
	.cfi_offset 12, -40
	pushq	%rbp
	.cfi_def_cfa_offset 48
	.cfi_offset 6, -48
	pushq	%rbx
	.cfi_def_cfa_offset 56
	.cfi_offset 3, -56
	movq	32(%rdi), %rcx
	movq	%rdx, -8(%rsp)
	testq	%rdx, %rdx
	jle	.L938
	leaq	-1(%rsi), %rax
	movq	(%rdi), %r10
	xorl	%r13d, %r13d
	movq	8(%rdi), %r9
	leaq	1(%rsi,%rsi), %r12
	movq	%rax, %r14
	shrq	$63, %r14
	movq	16(%rdi), %r8
	movq	24(%rdi), %rdi
	addq	%r14, %rax
	sarq	%rax
	leaq	(%rax,%rax), %rbp
	movq	%rax, %r14
	.p2align 4,,10
	.p2align 3
.L945:
#APP
# 207 "mem.cc" 1
	# random loop begin (n_chains = $5, payload = $0)
# 0 "" 2
#NO_APP
	xorl	%r11d, %r11d
	testq	%r14, %r14
	jle	.L946
	xorl	%eax, %eax
	testb	$2, %bpl
	jne	.L941
	movl	$1, %eax
	movq	%rax, %rdx
	subq	%rsi, %rdx
	js	.L966
	movq	%rdx, %rax
	subq	%rsi, %rax
	cmovs	%rdx, %rax
.L966:
	movq	(%r10), %rdx
	movl	$2, %r11d
	movq	(%r9), %rdx
	movq	(%r8), %rdx
	movq	(%rdi), %rdx
	movq	(%rcx), %rdx
	jmp	.L941
	.p2align 4,,10
	.p2align 3
.L947:
	leaq	1(%rdx,%r11), %rax
	movq	%rax, %r15
	subq	%rsi, %r15
	js	.L969
	movq	%r15, %rax
	subq	%rsi, %rax
	cmovs	%r15, %rax
.L969:
	salq	$6, %rdx
	addq	$2, %r11
	leaq	(%r9,%rdx), %r15
	leaq	(%r10,%rdx), %rbx
	movq	(%rbx), %rbx
	movq	(%r15), %rbx
	leaq	(%r8,%rdx), %rbx
	leaq	(%rdi,%rdx), %r15
	addq	%rcx, %rdx
	movq	(%rbx), %rbx
	movq	(%r15), %rbx
	movq	(%rdx), %rdx
.L941:
	leaq	1(%r11,%rax), %rdx
	movq	%rdx, %rbx
	subq	%rsi, %rbx
	js	.L940
	movq	%rbx, %rdx
	subq	%rsi, %rdx
	cmovs	%rbx, %rdx
.L940:
	salq	$6, %rax
	addq	$2, %r11
	leaq	(%r10,%rax), %r15
	movq	(%r15), %rbx
	leaq	(%r9,%rax), %rbx
	leaq	(%r8,%rax), %r15
	movq	(%rbx), %rbx
	movq	(%r15), %rbx
	leaq	(%rdi,%rax), %rbx
	addq	%rcx, %rax
	movq	(%rbx), %rbx
	movq	(%rax), %rax
	cmpq	%rbp, %r11
	jne	.L947
	leaq	1(%r14), %rbx
	movq	%rdx, %r11
	salq	$6, %r11
.L939:
	leaq	(%r10,%r11), %r15
	movq	%rsi, %rax
	subq	%rdx, %rax
	movq	(%r15), %rdx
	leaq	(%r9,%r11), %rdx
	leaq	(%r8,%r11), %r15
	movq	(%rdx), %rdx
	movq	(%r15), %rdx
	leaq	(%rdi,%r11), %rdx
	addq	%rcx, %r11
	movq	(%rdx), %rdx
	movq	(%r11), %rdx
	cmpq	%rbx, %rsi
	jle	.L948
	leaq	1(%rbx,%rbx), %rdx
	movq	%r12, %rbx
	subq	%rdx, %rbx
	subq	$2, %rbx
	shrq	%rbx
	andl	$3, %ebx
	je	.L944
	movq	%rax, %r11
	subq	%rdx, %r11
	js	.L985
.L951:
	salq	$6, %rax
	addq	$2, %rdx
	leaq	(%r10,%rax), %r15
	movq	(%r15), %r15
	leaq	(%r9,%rax), %r15
	movq	(%r15), %r15
	leaq	(%r8,%rax), %r15
	movq	(%r15), %r15
	leaq	(%rdi,%rax), %r15
	addq	%rcx, %rax
	movq	(%r15), %r15
	movq	(%rax), %rax
	movq	%r11, %rax
	cmpq	$1, %rbx
	je	.L944
	cmpq	$2, %rbx
	je	.L971
	subq	%rdx, %rax
	js	.L986
.L953:
	salq	$6, %r11
	addq	$2, %rdx
	leaq	(%r9,%r11), %r15
	leaq	(%r10,%r11), %rbx
	movq	(%rbx), %rbx
	movq	(%r15), %rbx
	leaq	(%r8,%r11), %rbx
	leaq	(%rdi,%r11), %r15
	addq	%rcx, %r11
	movq	(%rbx), %rbx
	movq	(%r15), %rbx
	movq	(%r11), %r11
.L971:
	movq	%rax, %r11
	subq	%rdx, %r11
	js	.L987
.L956:
	salq	$6, %rax
	addq	$2, %rdx
	leaq	(%r9,%rax), %r15
	leaq	(%r10,%rax), %rbx
	movq	(%rbx), %rbx
	movq	(%r15), %rbx
	leaq	(%r8,%rax), %rbx
	leaq	(%rdi,%rax), %r15
	addq	%rcx, %rax
	movq	(%rbx), %rbx
	movq	(%r15), %rbx
	movq	(%rax), %rax
	movq	%r11, %rax
	jmp	.L944
	.p2align 4,,10
	.p2align 3
.L943:
	salq	$6, %rax
	addq	$2, %rdx
	leaq	(%r9,%rax), %r15
	leaq	(%r10,%rax), %rbx
	movq	(%rbx), %rbx
	movq	(%r15), %rbx
	leaq	(%r8,%rax), %rbx
	leaq	(%rdi,%rax), %r15
	addq	%rcx, %rax
	movq	(%rbx), %rbx
	movq	(%r15), %rbx
	movq	(%rax), %rax
	cmpq	%rdx, %r12
	je	.L942
	movq	%r11, %rax
	subq	%rdx, %rax
	js	.L988
.L960:
	salq	$6, %r11
	leaq	(%r9,%r11), %r15
	leaq	(%r10,%r11), %rbx
	movq	(%rbx), %rbx
	movq	(%r15), %rbx
	leaq	(%rdi,%r11), %r15
	leaq	(%r8,%r11), %rbx
	addq	%rcx, %r11
	movq	(%rbx), %rbx
	movq	(%r15), %rbx
	movq	%rax, %rbx
	movq	(%r11), %r11
	leaq	2(%rdx), %r11
	subq	%r11, %rbx
	movq	%rbx, %r15
	js	.L989
.L962:
	salq	$6, %rax
	leaq	(%r10,%rax), %r11
	movq	(%r11), %rbx
	leaq	(%r8,%rax), %r11
	leaq	(%r9,%rax), %rbx
	movq	(%rbx), %rbx
	movq	(%r11), %rbx
	leaq	(%rdi,%rax), %rbx
	addq	%rcx, %rax
	movq	%r15, %r11
	movq	(%rbx), %rbx
	movq	(%rax), %rax
	leaq	4(%rdx), %rax
	subq	%rax, %r11
	movq	%r11, %rax
	js	.L990
.L964:
	salq	$6, %r15
	addq	$6, %rdx
	leaq	(%r9,%r15), %r11
	leaq	(%r10,%r15), %rbx
	movq	(%rbx), %rbx
	movq	(%r11), %rbx
	leaq	(%rdi,%r15), %r11
	leaq	(%r8,%r15), %rbx
	addq	%rcx, %r15
	movq	(%rbx), %rbx
	movq	(%r11), %rbx
	movq	(%r15), %r11
.L944:
	movq	%rax, %r11
	subq	%rdx, %r11
	jns	.L943
	addq	%rsi, %r11
	jns	.L943
	addq	%rsi, %r11
	jmp	.L943
	.p2align 4,,10
	.p2align 3
.L948:
	movq	%rax, %r11
.L942:
#APP
# 249 "mem.cc" 1
	# random loop end (n_chains = $5, payload = $0)
# 0 "" 2
#NO_APP
	addq	$1, %r13
	cmpq	%r13, -8(%rsp)
	jne	.L945
	salq	$6, %r11
.L938:
	popq	%rbx
	.cfi_remember_state
	.cfi_def_cfa_offset 48
	leaq	(%rcx,%r11), %rax
	popq	%rbp
	.cfi_def_cfa_offset 40
	popq	%r12
	.cfi_def_cfa_offset 32
	popq	%r13
	.cfi_def_cfa_offset 24
	popq	%r14
	.cfi_def_cfa_offset 16
	popq	%r15
	.cfi_def_cfa_offset 8
	ret
	.p2align 4,,10
	.p2align 3
.L988:
	.cfi_restore_state
	addq	%rsi, %rax
	jns	.L960
	addq	%rsi, %rax
	jmp	.L960
	.p2align 4,,10
	.p2align 3
.L990:
	addq	%rsi, %rax
	jns	.L964
	addq	%rsi, %rax
	jmp	.L964
	.p2align 4,,10
	.p2align 3
.L989:
	addq	%rsi, %r15
	jns	.L962
	addq	%rsi, %r15
	jmp	.L962
	.p2align 4,,10
	.p2align 3
.L986:
	addq	%rsi, %rax
	jns	.L953
	addq	%rsi, %rax
	jmp	.L953
	.p2align 4,,10
	.p2align 3
.L985:
	addq	%rsi, %r11
	jns	.L951
	addq	%rsi, %r11
	jmp	.L951
	.p2align 4,,10
	.p2align 3
.L987:
	addq	%rsi, %r11
	jns	.L956
	addq	%rsi, %r11
	jmp	.L956
	.p2align 4,,10
	.p2align 3
.L946:
	movl	$1, %ebx
	xorl	%edx, %edx
	jmp	.L939
	.cfi_endproc
.LFE195:
	.size	_Z13access_randomILi5ELi0EEP6recordPS1_ll, .-_Z13access_randomILi5ELi0EEP6recordPS1_ll
	.section	.text.unlikely._Z13access_randomILi5ELi0EEP6recordPS1_ll,"axG",@progbits,_Z13access_randomILi5ELi0EEP6recordPS1_ll,comdat
.LCOLDE59:
	.section	.text._Z13access_randomILi5ELi0EEP6recordPS1_ll,"axG",@progbits,_Z13access_randomILi5ELi0EEP6recordPS1_ll,comdat
.LHOTE59:
	.section	.text.unlikely._Z13access_randomILi6ELi1EEP6recordPS1_ll,"axG",@progbits,_Z13access_randomILi6ELi1EEP6recordPS1_ll,comdat
.LCOLDB60:
	.section	.text._Z13access_randomILi6ELi1EEP6recordPS1_ll,"axG",@progbits,_Z13access_randomILi6ELi1EEP6recordPS1_ll,comdat
.LHOTB60:
	.p2align 4,,15
	.weak	_Z13access_randomILi6ELi1EEP6recordPS1_ll
	.type	_Z13access_randomILi6ELi1EEP6recordPS1_ll, @function
_Z13access_randomILi6ELi1EEP6recordPS1_ll:
.LFB198:
	.cfi_startproc
	leaq	8(%rsp), %r10
	.cfi_def_cfa 10, 0
	andq	$-32, %rsp
	pushq	-8(%r10)
	pushq	%rbp
	.cfi_escape 0x10,0x6,0x2,0x76,0
	movq	%rsp, %rbp
	pushq	%r15
	pushq	%r14
	pushq	%r13
	pushq	%r12
	pushq	%r10
	.cfi_escape 0xf,0x3,0x76,0x58,0x6
	.cfi_escape 0x10,0xf,0x2,0x76,0x78
	.cfi_escape 0x10,0xe,0x2,0x76,0x70
	.cfi_escape 0x10,0xd,0x2,0x76,0x68
	.cfi_escape 0x10,0xc,0x2,0x76,0x60
	pushq	%rbx
	.cfi_escape 0x10,0x3,0x2,0x76,0x50
	movq	%rdx, -64(%rbp)
	movq	40(%rdi), %rcx
	testq	%rdx, %rdx
	jle	.L1028
	leaq	-1(%rsi), %rax
	movq	(%rdi), %r11
	xorl	%r13d, %r13d
	movq	8(%rdi), %r10
	leaq	1(%rsi,%rsi), %rbx
	movq	%rax, %rdx
	movq	16(%rdi), %r9
	shrq	$63, %rdx
	movq	24(%rdi), %r8
	addq	%rdx, %rax
	movq	32(%rdi), %rdi
	sarq	%rax
	movq	%rax, -56(%rbp)
	leaq	(%rax,%rax), %r12
	.p2align 4,,10
	.p2align 3
.L1000:
#APP
# 207 "mem.cc" 1
	# random loop begin (n_chains = $6, payload = $1)
# 0 "" 2
#NO_APP
	xorl	%r14d, %r14d
	cmpq	$0, -56(%rbp)
	jle	.L1001
	xorl	%eax, %eax
	testb	$2, %r12b
	jne	.L996
	movl	$1, %eax
	movq	%rax, %r14
	subq	%rsi, %r14
	js	.L1011
	movq	%r14, %rax
	subq	%rsi, %rax
	cmovs	%r14, %rax
.L1011:
	vmovdqa	(%r11), %ymm0
	movl	$2, %r14d
	vmovdqa	32(%r11), %ymm0
	vmovdqa	(%r10), %ymm0
	vmovdqa	32(%r10), %ymm0
	vmovdqa	(%r9), %ymm0
	vmovdqa	32(%r9), %ymm0
	vmovdqa	(%r8), %ymm0
	vmovdqa	32(%r8), %ymm0
	vmovdqa	(%rdi), %ymm0
	vmovdqa	32(%rdi), %ymm0
	vmovdqa	(%rcx), %ymm0
	vmovdqa	32(%rcx), %ymm0
	jmp	.L996
	.p2align 4,,10
	.p2align 3
.L1002:
	leaq	1(%rdx,%r14), %rax
	movq	%rax, %r15
	subq	%rsi, %r15
	js	.L1014
	movq	%r15, %rax
	subq	%rsi, %rax
	cmovs	%r15, %rax
.L1014:
	salq	$6, %rdx
	addq	$2, %r14
	leaq	(%r11,%rdx), %r15
	vmovdqa	(%r15), %ymm0
	vmovdqa	32(%r15), %ymm0
	leaq	(%r10,%rdx), %r15
	vmovdqa	(%r15), %ymm0
	vmovdqa	32(%r15), %ymm0
	leaq	(%r9,%rdx), %r15
	vmovdqa	(%r15), %ymm0
	vmovdqa	32(%r15), %ymm0
	leaq	(%r8,%rdx), %r15
	vmovdqa	(%r15), %ymm0
	vmovdqa	32(%r15), %ymm0
	leaq	(%rdi,%rdx), %r15
	addq	%rcx, %rdx
	vmovdqa	(%r15), %ymm0
	vmovdqa	32(%r15), %ymm0
	vmovdqa	(%rdx), %ymm0
	vmovdqa	32(%rdx), %ymm0
.L996:
	leaq	1(%r14,%rax), %rdx
	movq	%rdx, %r15
	subq	%rsi, %r15
	js	.L995
	movq	%r15, %rdx
	subq	%rsi, %rdx
	cmovs	%r15, %rdx
.L995:
	salq	$6, %rax
	addq	$2, %r14
	leaq	(%r11,%rax), %r15
	vmovdqa	(%r15), %ymm0
	vmovdqa	32(%r15), %ymm0
	leaq	(%r10,%rax), %r15
	vmovdqa	(%r15), %ymm0
	vmovdqa	32(%r15), %ymm0
	leaq	(%r9,%rax), %r15
	vmovdqa	(%r15), %ymm0
	vmovdqa	32(%r15), %ymm0
	leaq	(%r8,%rax), %r15
	vmovdqa	(%r15), %ymm0
	vmovdqa	32(%r15), %ymm0
	leaq	(%rdi,%rax), %r15
	addq	%rcx, %rax
	vmovdqa	(%r15), %ymm0
	vmovdqa	32(%r15), %ymm0
	vmovdqa	(%rax), %ymm0
	vmovdqa	32(%rax), %ymm0
	cmpq	%r12, %r14
	jne	.L1002
	movq	-56(%rbp), %r14
	leaq	1(%r14), %r15
	movq	%rdx, %r14
	salq	$6, %r14
.L994:
	movq	%rsi, %rax
	subq	%rdx, %rax
	leaq	(%r11,%r14), %rdx
	vmovdqa	(%rdx), %ymm0
	vmovdqa	32(%rdx), %ymm0
	leaq	(%r10,%r14), %rdx
	vmovdqa	(%rdx), %ymm0
	vmovdqa	32(%rdx), %ymm0
	leaq	(%r9,%r14), %rdx
	vmovdqa	(%rdx), %ymm0
	vmovdqa	32(%rdx), %ymm0
	leaq	(%r8,%r14), %rdx
	vmovdqa	(%rdx), %ymm0
	vmovdqa	32(%rdx), %ymm0
	leaq	(%rdi,%r14), %rdx
	addq	%rcx, %r14
	vmovdqa	(%rdx), %ymm0
	vmovdqa	32(%rdx), %ymm0
	vmovdqa	(%r14), %ymm0
	vmovdqa	32(%r14), %ymm0
	cmpq	%r15, %rsi
	jle	.L1003
	leaq	1(%r15,%r15), %r14
	movq	%rbx, %r15
	subq	%r14, %r15
	andl	$2, %r15d
	jne	.L999
	movq	%rax, %rdx
	subq	%r14, %rdx
	js	.L1029
.L1006:
	salq	$6, %rax
	addq	$2, %r14
	leaq	(%r11,%rax), %r15
	vmovdqa	(%r15), %ymm0
	vmovdqa	32(%r15), %ymm0
	leaq	(%r10,%rax), %r15
	vmovdqa	(%r15), %ymm0
	vmovdqa	32(%r15), %ymm0
	leaq	(%r9,%rax), %r15
	vmovdqa	(%r15), %ymm0
	vmovdqa	32(%r15), %ymm0
	leaq	(%r8,%rax), %r15
	vmovdqa	(%r15), %ymm0
	vmovdqa	32(%r15), %ymm0
	leaq	(%rdi,%rax), %r15
	addq	%rcx, %rax
	vmovdqa	(%r15), %ymm0
	vmovdqa	32(%r15), %ymm0
	vmovdqa	(%rax), %ymm0
	vmovdqa	32(%rax), %ymm0
	movq	%rdx, %rax
	jmp	.L999
	.p2align 4,,10
	.p2align 3
.L998:
	salq	$6, %rax
	addq	$2, %r14
	leaq	(%r11,%rax), %r15
	vmovdqa	(%r15), %ymm0
	vmovdqa	32(%r15), %ymm0
	leaq	(%r10,%rax), %r15
	vmovdqa	(%r15), %ymm0
	vmovdqa	32(%r15), %ymm0
	leaq	(%r9,%rax), %r15
	vmovdqa	(%r15), %ymm0
	vmovdqa	32(%r15), %ymm0
	leaq	(%r8,%rax), %r15
	vmovdqa	(%r15), %ymm0
	vmovdqa	32(%r15), %ymm0
	leaq	(%rdi,%rax), %r15
	addq	%rcx, %rax
	vmovdqa	(%r15), %ymm0
	vmovdqa	32(%r15), %ymm0
	vmovdqa	(%rax), %ymm0
	vmovdqa	32(%rax), %ymm0
	cmpq	%r14, %rbx
	je	.L997
	movq	%rdx, %rax
	subq	%r14, %rax
	js	.L1030
.L1009:
	salq	$6, %rdx
	addq	$2, %r14
	leaq	(%r11,%rdx), %r15
	vmovdqa	(%r15), %ymm0
	vmovdqa	32(%r15), %ymm0
	leaq	(%r10,%rdx), %r15
	vmovdqa	(%r15), %ymm0
	vmovdqa	32(%r15), %ymm0
	leaq	(%r9,%rdx), %r15
	vmovdqa	(%r15), %ymm0
	vmovdqa	32(%r15), %ymm0
	leaq	(%r8,%rdx), %r15
	vmovdqa	(%r15), %ymm0
	vmovdqa	32(%r15), %ymm0
	leaq	(%rdi,%rdx), %r15
	addq	%rcx, %rdx
	vmovdqa	(%r15), %ymm0
	vmovdqa	32(%r15), %ymm0
	vmovdqa	(%rdx), %ymm0
	vmovdqa	32(%rdx), %ymm0
.L999:
	movq	%rax, %rdx
	subq	%r14, %rdx
	jns	.L998
	addq	%rsi, %rdx
	jns	.L998
	addq	%rsi, %rdx
	jmp	.L998
	.p2align 4,,10
	.p2align 3
.L1030:
	addq	%rsi, %rax
	jns	.L1009
	addq	%rsi, %rax
	jmp	.L1009
	.p2align 4,,10
	.p2align 3
.L1003:
	movq	%rax, %rdx
	.p2align 4,,10
	.p2align 3
.L997:
#APP
# 249 "mem.cc" 1
	# random loop end (n_chains = $6, payload = $1)
# 0 "" 2
#NO_APP
	addq	$1, %r13
	cmpq	%r13, -64(%rbp)
	jne	.L1000
	salq	$6, %rdx
	vzeroupper
.L993:
	leaq	(%rcx,%rdx), %rax
	popq	%rbx
	popq	%rsi
	.cfi_remember_state
	.cfi_def_cfa 10, 0
	popq	%r12
	popq	%r13
	popq	%r14
	popq	%r15
	popq	%rbp
	leaq	-8(%rsi), %rsp
	.cfi_def_cfa 7, 8
	ret
	.p2align 4,,10
	.p2align 3
.L1029:
	.cfi_restore_state
	addq	%rsi, %rdx
	jns	.L1006
	addq	%rsi, %rdx
	jmp	.L1006
	.p2align 4,,10
	.p2align 3
.L1001:
	movl	$1, %r15d
	xorl	%edx, %edx
	jmp	.L994
.L1028:
	xorl	%edx, %edx
	jmp	.L993
	.cfi_endproc
.LFE198:
	.size	_Z13access_randomILi6ELi1EEP6recordPS1_ll, .-_Z13access_randomILi6ELi1EEP6recordPS1_ll
	.section	.text.unlikely._Z13access_randomILi6ELi1EEP6recordPS1_ll,"axG",@progbits,_Z13access_randomILi6ELi1EEP6recordPS1_ll,comdat
.LCOLDE60:
	.section	.text._Z13access_randomILi6ELi1EEP6recordPS1_ll,"axG",@progbits,_Z13access_randomILi6ELi1EEP6recordPS1_ll,comdat
.LHOTE60:
	.section	.text.unlikely._Z13access_randomILi6ELi0EEP6recordPS1_ll,"axG",@progbits,_Z13access_randomILi6ELi0EEP6recordPS1_ll,comdat
.LCOLDB61:
	.section	.text._Z13access_randomILi6ELi0EEP6recordPS1_ll,"axG",@progbits,_Z13access_randomILi6ELi0EEP6recordPS1_ll,comdat
.LHOTB61:
	.p2align 4,,15
	.weak	_Z13access_randomILi6ELi0EEP6recordPS1_ll
	.type	_Z13access_randomILi6ELi0EEP6recordPS1_ll, @function
_Z13access_randomILi6ELi0EEP6recordPS1_ll:
.LFB201:
	.cfi_startproc
	pushq	%r15
	.cfi_def_cfa_offset 16
	.cfi_offset 15, -16
	pushq	%r14
	.cfi_def_cfa_offset 24
	.cfi_offset 14, -24
	pushq	%r13
	.cfi_def_cfa_offset 32
	.cfi_offset 13, -32
	pushq	%r12
	.cfi_def_cfa_offset 40
	.cfi_offset 12, -40
	pushq	%rbp
	.cfi_def_cfa_offset 48
	.cfi_offset 6, -48
	pushq	%rbx
	.cfi_def_cfa_offset 56
	.cfi_offset 3, -56
	movq	40(%rdi), %rcx
	movq	%rdx, -8(%rsp)
	testq	%rdx, %rdx
	jle	.L1068
	leaq	-1(%rsi), %rax
	movq	(%rdi), %r11
	xorl	%r12d, %r12d
	movq	8(%rdi), %r10
	leaq	1(%rsi,%rsi), %rbx
	movq	%rax, %r13
	shrq	$63, %r13
	movq	16(%rdi), %r9
	movq	24(%rdi), %r8
	addq	%r13, %rax
	movq	32(%rdi), %rdi
	sarq	%rax
	leaq	(%rax,%rax), %rbp
	movq	%rax, %r13
	.p2align 4,,10
	.p2align 3
.L1040:
#APP
# 207 "mem.cc" 1
	# random loop begin (n_chains = $6, payload = $0)
# 0 "" 2
#NO_APP
	xorl	%r14d, %r14d
	testq	%r13, %r13
	jle	.L1041
	xorl	%eax, %eax
	testb	$2, %bpl
	jne	.L1036
	movl	$1, %eax
	movq	%rax, %rdx
	subq	%rsi, %rdx
	js	.L1051
	movq	%rdx, %rax
	subq	%rsi, %rax
	cmovs	%rdx, %rax
.L1051:
	movq	(%r11), %rdx
	movl	$2, %r14d
	movq	(%r10), %rdx
	movq	(%r9), %rdx
	movq	(%r8), %rdx
	movq	(%rdi), %rdx
	movq	(%rcx), %rdx
	jmp	.L1036
	.p2align 4,,10
	.p2align 3
.L1042:
	leaq	1(%rdx,%r14), %rax
	movq	%rax, %r15
	subq	%rsi, %r15
	js	.L1054
	movq	%r15, %rax
	subq	%rsi, %rax
	cmovs	%r15, %rax
.L1054:
	salq	$6, %rdx
	addq	$2, %r14
	leaq	(%r11,%rdx), %r15
	movq	(%r15), %r15
	leaq	(%r10,%rdx), %r15
	movq	(%r15), %r15
	leaq	(%r9,%rdx), %r15
	movq	(%r15), %r15
	leaq	(%r8,%rdx), %r15
	movq	(%r15), %r15
	leaq	(%rdi,%rdx), %r15
	addq	%rcx, %rdx
	movq	(%r15), %r15
	movq	(%rdx), %rdx
.L1036:
	leaq	1(%r14,%rax), %rdx
	movq	%rdx, %r15
	subq	%rsi, %r15
	js	.L1035
	movq	%r15, %rdx
	subq	%rsi, %rdx
	cmovs	%r15, %rdx
.L1035:
	salq	$6, %rax
	addq	$2, %r14
	leaq	(%r11,%rax), %r15
	movq	(%r15), %r15
	leaq	(%r10,%rax), %r15
	movq	(%r15), %r15
	leaq	(%r9,%rax), %r15
	movq	(%r15), %r15
	leaq	(%r8,%rax), %r15
	movq	(%r15), %r15
	leaq	(%rdi,%rax), %r15
	addq	%rcx, %rax
	movq	(%r15), %r15
	movq	(%rax), %rax
	cmpq	%rbp, %r14
	jne	.L1042
	leaq	1(%r13), %r15
	movq	%rdx, %r14
	salq	$6, %r14
.L1034:
	movq	%rsi, %rax
	subq	%rdx, %rax
	leaq	(%r11,%r14), %rdx
	movq	(%rdx), %rdx
	leaq	(%r10,%r14), %rdx
	movq	(%rdx), %rdx
	leaq	(%r9,%r14), %rdx
	movq	(%rdx), %rdx
	leaq	(%r8,%r14), %rdx
	movq	(%rdx), %rdx
	leaq	(%rdi,%r14), %rdx
	addq	%rcx, %r14
	movq	(%rdx), %rdx
	movq	(%r14), %rdx
	cmpq	%r15, %rsi
	jle	.L1043
	leaq	1(%r15,%r15), %r14
	movq	%rbx, %r15
	subq	%r14, %r15
	andl	$2, %r15d
	jne	.L1039
	movq	%rax, %rdx
	subq	%r14, %rdx
	js	.L1069
.L1046:
	salq	$6, %rax
	addq	$2, %r14
	leaq	(%r11,%rax), %r15
	movq	(%r15), %r15
	leaq	(%r10,%rax), %r15
	movq	(%r15), %r15
	leaq	(%r9,%rax), %r15
	movq	(%r15), %r15
	leaq	(%r8,%rax), %r15
	movq	(%r15), %r15
	leaq	(%rdi,%rax), %r15
	addq	%rcx, %rax
	movq	(%r15), %r15
	movq	(%rax), %rax
	movq	%rdx, %rax
	jmp	.L1039
	.p2align 4,,10
	.p2align 3
.L1038:
	salq	$6, %rax
	addq	$2, %r14
	leaq	(%r11,%rax), %r15
	movq	(%r15), %r15
	leaq	(%r10,%rax), %r15
	movq	(%r15), %r15
	leaq	(%r9,%rax), %r15
	movq	(%r15), %r15
	leaq	(%r8,%rax), %r15
	movq	(%r15), %r15
	leaq	(%rdi,%rax), %r15
	addq	%rcx, %rax
	movq	(%r15), %r15
	movq	(%rax), %rax
	cmpq	%r14, %rbx
	je	.L1037
	movq	%rdx, %rax
	subq	%r14, %rax
	js	.L1070
.L1049:
	salq	$6, %rdx
	addq	$2, %r14
	leaq	(%r11,%rdx), %r15
	movq	(%r15), %r15
	leaq	(%r10,%rdx), %r15
	movq	(%r15), %r15
	leaq	(%r9,%rdx), %r15
	movq	(%r15), %r15
	leaq	(%r8,%rdx), %r15
	movq	(%r15), %r15
	leaq	(%rdi,%rdx), %r15
	addq	%rcx, %rdx
	movq	(%r15), %r15
	movq	(%rdx), %rdx
.L1039:
	movq	%rax, %rdx
	subq	%r14, %rdx
	jns	.L1038
	addq	%rsi, %rdx
	jns	.L1038
	addq	%rsi, %rdx
	jmp	.L1038
	.p2align 4,,10
	.p2align 3
.L1070:
	addq	%rsi, %rax
	jns	.L1049
	addq	%rsi, %rax
	jmp	.L1049
	.p2align 4,,10
	.p2align 3
.L1043:
	movq	%rax, %rdx
	.p2align 4,,10
	.p2align 3
.L1037:
#APP
# 249 "mem.cc" 1
	# random loop end (n_chains = $6, payload = $0)
# 0 "" 2
#NO_APP
	addq	$1, %r12
	cmpq	%r12, -8(%rsp)
	jne	.L1040
	salq	$6, %rdx
	popq	%rbx
	.cfi_remember_state
	.cfi_def_cfa_offset 48
	popq	%rbp
	.cfi_def_cfa_offset 40
	popq	%r12
	.cfi_def_cfa_offset 32
	popq	%r13
	.cfi_def_cfa_offset 24
	popq	%r14
	.cfi_def_cfa_offset 16
	popq	%r15
	.cfi_def_cfa_offset 8
	leaq	(%rcx,%rdx), %rax
	ret
	.p2align 4,,10
	.p2align 3
.L1069:
	.cfi_restore_state
	addq	%rsi, %rdx
	jns	.L1046
	addq	%rsi, %rdx
	jmp	.L1046
	.p2align 4,,10
	.p2align 3
.L1041:
	movl	$1, %r15d
	xorl	%edx, %edx
	jmp	.L1034
.L1068:
	xorl	%edx, %edx
	popq	%rbx
	.cfi_def_cfa_offset 48
	popq	%rbp
	.cfi_def_cfa_offset 40
	popq	%r12
	.cfi_def_cfa_offset 32
	popq	%r13
	.cfi_def_cfa_offset 24
	popq	%r14
	.cfi_def_cfa_offset 16
	popq	%r15
	.cfi_def_cfa_offset 8
	leaq	(%rcx,%rdx), %rax
	ret
	.cfi_endproc
.LFE201:
	.size	_Z13access_randomILi6ELi0EEP6recordPS1_ll, .-_Z13access_randomILi6ELi0EEP6recordPS1_ll
	.section	.text.unlikely._Z13access_randomILi6ELi0EEP6recordPS1_ll,"axG",@progbits,_Z13access_randomILi6ELi0EEP6recordPS1_ll,comdat
.LCOLDE61:
	.section	.text._Z13access_randomILi6ELi0EEP6recordPS1_ll,"axG",@progbits,_Z13access_randomILi6ELi0EEP6recordPS1_ll,comdat
.LHOTE61:
	.section	.text.unlikely._Z13access_randomILi7ELi1EEP6recordPS1_ll,"axG",@progbits,_Z13access_randomILi7ELi1EEP6recordPS1_ll,comdat
.LCOLDB62:
	.section	.text._Z13access_randomILi7ELi1EEP6recordPS1_ll,"axG",@progbits,_Z13access_randomILi7ELi1EEP6recordPS1_ll,comdat
.LHOTB62:
	.p2align 4,,15
	.weak	_Z13access_randomILi7ELi1EEP6recordPS1_ll
	.type	_Z13access_randomILi7ELi1EEP6recordPS1_ll, @function
_Z13access_randomILi7ELi1EEP6recordPS1_ll:
.LFB204:
	.cfi_startproc
	leaq	8(%rsp), %r10
	.cfi_def_cfa 10, 0
	andq	$-32, %rsp
	pushq	-8(%r10)
	pushq	%rbp
	.cfi_escape 0x10,0x6,0x2,0x76,0
	movq	%rsp, %rbp
	pushq	%r15
	pushq	%r14
	pushq	%r13
	pushq	%r12
	pushq	%r10
	.cfi_escape 0xf,0x3,0x76,0x58,0x6
	.cfi_escape 0x10,0xf,0x2,0x76,0x78
	.cfi_escape 0x10,0xe,0x2,0x76,0x70
	.cfi_escape 0x10,0xd,0x2,0x76,0x68
	.cfi_escape 0x10,0xc,0x2,0x76,0x60
	pushq	%rbx
	.cfi_escape 0x10,0x3,0x2,0x76,0x50
	movq	%rdx, -72(%rbp)
	movq	48(%rdi), %rcx
	testq	%rdx, %rdx
	jle	.L1108
	leaq	-1(%rsi), %rax
	movq	(%rdi), %rbx
	movq	$0, -56(%rbp)
	movq	8(%rdi), %r11
	leaq	1(%rsi,%rsi), %r12
	movq	%rax, %rdx
	movq	16(%rdi), %r10
	shrq	$63, %rdx
	movq	24(%rdi), %r9
	addq	%rdx, %rax
	movq	32(%rdi), %r8
	sarq	%rax
	movq	40(%rdi), %rdi
	movq	%rax, -64(%rbp)
	leaq	(%rax,%rax), %r13
	.p2align 4,,10
	.p2align 3
.L1080:
#APP
# 207 "mem.cc" 1
	# random loop begin (n_chains = $7, payload = $1)
# 0 "" 2
#NO_APP
	xorl	%r14d, %r14d
	cmpq	$0, -64(%rbp)
	jle	.L1081
	xorl	%eax, %eax
	testb	$2, %r13b
	jne	.L1076
	movl	$1, %eax
	movq	%rax, %r14
	subq	%rsi, %r14
	js	.L1091
	movq	%r14, %rax
	subq	%rsi, %rax
	cmovs	%r14, %rax
.L1091:
	vmovdqa	(%rbx), %ymm0
	movl	$2, %r14d
	vmovdqa	32(%rbx), %ymm0
	vmovdqa	(%r11), %ymm0
	vmovdqa	32(%r11), %ymm0
	vmovdqa	(%r10), %ymm0
	vmovdqa	32(%r10), %ymm0
	vmovdqa	(%r9), %ymm0
	vmovdqa	32(%r9), %ymm0
	vmovdqa	(%r8), %ymm0
	vmovdqa	32(%r8), %ymm0
	vmovdqa	(%rdi), %ymm0
	vmovdqa	32(%rdi), %ymm0
	vmovdqa	(%rcx), %ymm0
	vmovdqa	32(%rcx), %ymm0
	jmp	.L1076
	.p2align 4,,10
	.p2align 3
.L1082:
	leaq	1(%rdx,%r14), %rax
	movq	%rax, %r15
	subq	%rsi, %r15
	js	.L1094
	movq	%r15, %rax
	subq	%rsi, %rax
	cmovs	%r15, %rax
.L1094:
	salq	$6, %rdx
	addq	$2, %r14
	leaq	(%rbx,%rdx), %r15
	vmovdqa	(%r15), %ymm0
	vmovdqa	32(%r15), %ymm0
	leaq	(%r11,%rdx), %r15
	vmovdqa	(%r15), %ymm0
	vmovdqa	32(%r15), %ymm0
	leaq	(%r10,%rdx), %r15
	vmovdqa	(%r15), %ymm0
	vmovdqa	32(%r15), %ymm0
	leaq	(%r9,%rdx), %r15
	vmovdqa	(%r15), %ymm0
	vmovdqa	32(%r15), %ymm0
	leaq	(%r8,%rdx), %r15
	vmovdqa	(%r15), %ymm0
	vmovdqa	32(%r15), %ymm0
	leaq	(%rdi,%rdx), %r15
	addq	%rcx, %rdx
	vmovdqa	(%r15), %ymm0
	vmovdqa	32(%r15), %ymm0
	vmovdqa	(%rdx), %ymm0
	vmovdqa	32(%rdx), %ymm0
.L1076:
	leaq	1(%r14,%rax), %rdx
	movq	%rdx, %r15
	subq	%rsi, %r15
	js	.L1075
	movq	%r15, %rdx
	subq	%rsi, %rdx
	cmovs	%r15, %rdx
.L1075:
	salq	$6, %rax
	addq	$2, %r14
	leaq	(%rbx,%rax), %r15
	vmovdqa	(%r15), %ymm0
	vmovdqa	32(%r15), %ymm0
	leaq	(%r11,%rax), %r15
	vmovdqa	(%r15), %ymm0
	vmovdqa	32(%r15), %ymm0
	leaq	(%r10,%rax), %r15
	vmovdqa	(%r15), %ymm0
	vmovdqa	32(%r15), %ymm0
	leaq	(%r9,%rax), %r15
	vmovdqa	(%r15), %ymm0
	vmovdqa	32(%r15), %ymm0
	leaq	(%r8,%rax), %r15
	vmovdqa	(%r15), %ymm0
	vmovdqa	32(%r15), %ymm0
	leaq	(%rdi,%rax), %r15
	addq	%rcx, %rax
	vmovdqa	(%r15), %ymm0
	vmovdqa	32(%r15), %ymm0
	vmovdqa	(%rax), %ymm0
	vmovdqa	32(%rax), %ymm0
	cmpq	%r13, %r14
	jne	.L1082
	movq	-64(%rbp), %r14
	leaq	1(%r14), %r15
	movq	%rdx, %r14
	salq	$6, %r14
.L1074:
	movq	%rsi, %rax
	subq	%rdx, %rax
	leaq	(%rbx,%r14), %rdx
	vmovdqa	(%rdx), %ymm0
	vmovdqa	32(%rdx), %ymm0
	leaq	(%r11,%r14), %rdx
	vmovdqa	(%rdx), %ymm0
	vmovdqa	32(%rdx), %ymm0
	leaq	(%r10,%r14), %rdx
	vmovdqa	(%rdx), %ymm0
	vmovdqa	32(%rdx), %ymm0
	leaq	(%r9,%r14), %rdx
	vmovdqa	(%rdx), %ymm0
	vmovdqa	32(%rdx), %ymm0
	leaq	(%r8,%r14), %rdx
	vmovdqa	(%rdx), %ymm0
	vmovdqa	32(%rdx), %ymm0
	leaq	(%rdi,%r14), %rdx
	addq	%rcx, %r14
	vmovdqa	(%rdx), %ymm0
	vmovdqa	32(%rdx), %ymm0
	vmovdqa	(%r14), %ymm0
	vmovdqa	32(%r14), %ymm0
	cmpq	%r15, %rsi
	jle	.L1083
	leaq	1(%r15,%r15), %r14
	movq	%r12, %r15
	subq	%r14, %r15
	andl	$2, %r15d
	jne	.L1079
	movq	%rax, %rdx
	subq	%r14, %rdx
	js	.L1109
.L1086:
	salq	$6, %rax
	addq	$2, %r14
	leaq	(%rbx,%rax), %r15
	vmovdqa	(%r15), %ymm0
	vmovdqa	32(%r15), %ymm0
	leaq	(%r11,%rax), %r15
	vmovdqa	(%r15), %ymm0
	vmovdqa	32(%r15), %ymm0
	leaq	(%r10,%rax), %r15
	vmovdqa	(%r15), %ymm0
	vmovdqa	32(%r15), %ymm0
	leaq	(%r9,%rax), %r15
	vmovdqa	(%r15), %ymm0
	vmovdqa	32(%r15), %ymm0
	leaq	(%r8,%rax), %r15
	vmovdqa	(%r15), %ymm0
	vmovdqa	32(%r15), %ymm0
	leaq	(%rdi,%rax), %r15
	addq	%rcx, %rax
	vmovdqa	(%r15), %ymm0
	vmovdqa	32(%r15), %ymm0
	vmovdqa	(%rax), %ymm0
	vmovdqa	32(%rax), %ymm0
	movq	%rdx, %rax
	jmp	.L1079
	.p2align 4,,10
	.p2align 3
.L1078:
	salq	$6, %rax
	addq	$2, %r14
	leaq	(%rbx,%rax), %r15
	vmovdqa	(%r15), %ymm0
	vmovdqa	32(%r15), %ymm0
	leaq	(%r11,%rax), %r15
	vmovdqa	(%r15), %ymm0
	vmovdqa	32(%r15), %ymm0
	leaq	(%r10,%rax), %r15
	vmovdqa	(%r15), %ymm0
	vmovdqa	32(%r15), %ymm0
	leaq	(%r9,%rax), %r15
	vmovdqa	(%r15), %ymm0
	vmovdqa	32(%r15), %ymm0
	leaq	(%r8,%rax), %r15
	vmovdqa	(%r15), %ymm0
	vmovdqa	32(%r15), %ymm0
	leaq	(%rdi,%rax), %r15
	addq	%rcx, %rax
	vmovdqa	(%r15), %ymm0
	vmovdqa	32(%r15), %ymm0
	vmovdqa	(%rax), %ymm0
	vmovdqa	32(%rax), %ymm0
	cmpq	%r14, %r12
	je	.L1077
	movq	%rdx, %rax
	subq	%r14, %rax
	js	.L1110
.L1089:
	salq	$6, %rdx
	addq	$2, %r14
	leaq	(%rbx,%rdx), %r15
	vmovdqa	(%r15), %ymm0
	vmovdqa	32(%r15), %ymm0
	leaq	(%r11,%rdx), %r15
	vmovdqa	(%r15), %ymm0
	vmovdqa	32(%r15), %ymm0
	leaq	(%r10,%rdx), %r15
	vmovdqa	(%r15), %ymm0
	vmovdqa	32(%r15), %ymm0
	leaq	(%r9,%rdx), %r15
	vmovdqa	(%r15), %ymm0
	vmovdqa	32(%r15), %ymm0
	leaq	(%r8,%rdx), %r15
	vmovdqa	(%r15), %ymm0
	vmovdqa	32(%r15), %ymm0
	leaq	(%rdi,%rdx), %r15
	addq	%rcx, %rdx
	vmovdqa	(%r15), %ymm0
	vmovdqa	32(%r15), %ymm0
	vmovdqa	(%rdx), %ymm0
	vmovdqa	32(%rdx), %ymm0
.L1079:
	movq	%rax, %rdx
	subq	%r14, %rdx
	jns	.L1078
	addq	%rsi, %rdx
	jns	.L1078
	addq	%rsi, %rdx
	jmp	.L1078
	.p2align 4,,10
	.p2align 3
.L1110:
	addq	%rsi, %rax
	jns	.L1089
	addq	%rsi, %rax
	jmp	.L1089
	.p2align 4,,10
	.p2align 3
.L1083:
	movq	%rax, %rdx
	.p2align 4,,10
	.p2align 3
.L1077:
#APP
# 249 "mem.cc" 1
	# random loop end (n_chains = $7, payload = $1)
# 0 "" 2
#NO_APP
	addq	$1, -56(%rbp)
	movq	-56(%rbp), %r14
	cmpq	%r14, -72(%rbp)
	jne	.L1080
	salq	$6, %rdx
	vzeroupper
.L1073:
	leaq	(%rcx,%rdx), %rax
	popq	%rbx
	popq	%rsi
	.cfi_remember_state
	.cfi_def_cfa 10, 0
	popq	%r12
	popq	%r13
	popq	%r14
	popq	%r15
	popq	%rbp
	leaq	-8(%rsi), %rsp
	.cfi_def_cfa 7, 8
	ret
	.p2align 4,,10
	.p2align 3
.L1109:
	.cfi_restore_state
	addq	%rsi, %rdx
	jns	.L1086
	addq	%rsi, %rdx
	jmp	.L1086
	.p2align 4,,10
	.p2align 3
.L1081:
	movl	$1, %r15d
	xorl	%edx, %edx
	jmp	.L1074
.L1108:
	xorl	%edx, %edx
	jmp	.L1073
	.cfi_endproc
.LFE204:
	.size	_Z13access_randomILi7ELi1EEP6recordPS1_ll, .-_Z13access_randomILi7ELi1EEP6recordPS1_ll
	.section	.text.unlikely._Z13access_randomILi7ELi1EEP6recordPS1_ll,"axG",@progbits,_Z13access_randomILi7ELi1EEP6recordPS1_ll,comdat
.LCOLDE62:
	.section	.text._Z13access_randomILi7ELi1EEP6recordPS1_ll,"axG",@progbits,_Z13access_randomILi7ELi1EEP6recordPS1_ll,comdat
.LHOTE62:
	.section	.text.unlikely._Z13access_randomILi7ELi0EEP6recordPS1_ll,"axG",@progbits,_Z13access_randomILi7ELi0EEP6recordPS1_ll,comdat
.LCOLDB63:
	.section	.text._Z13access_randomILi7ELi0EEP6recordPS1_ll,"axG",@progbits,_Z13access_randomILi7ELi0EEP6recordPS1_ll,comdat
.LHOTB63:
	.p2align 4,,15
	.weak	_Z13access_randomILi7ELi0EEP6recordPS1_ll
	.type	_Z13access_randomILi7ELi0EEP6recordPS1_ll, @function
_Z13access_randomILi7ELi0EEP6recordPS1_ll:
.LFB207:
	.cfi_startproc
	pushq	%r15
	.cfi_def_cfa_offset 16
	.cfi_offset 15, -16
	pushq	%r14
	.cfi_def_cfa_offset 24
	.cfi_offset 14, -24
	pushq	%r13
	.cfi_def_cfa_offset 32
	.cfi_offset 13, -32
	pushq	%r12
	.cfi_def_cfa_offset 40
	.cfi_offset 12, -40
	pushq	%rbp
	.cfi_def_cfa_offset 48
	.cfi_offset 6, -48
	pushq	%rbx
	.cfi_def_cfa_offset 56
	.cfi_offset 3, -56
	movq	48(%rdi), %rcx
	movq	%rdx, -8(%rsp)
	testq	%rdx, %rdx
	jle	.L1148
	leaq	-1(%rsi), %rax
	movq	(%rdi), %rbx
	xorl	%r13d, %r13d
	movq	8(%rdi), %r11
	leaq	1(%rsi,%rsi), %rbp
	movq	%rax, %rdx
	movq	16(%rdi), %r10
	shrq	$63, %rdx
	movq	24(%rdi), %r9
	addq	%rdx, %rax
	movq	32(%rdi), %r8
	sarq	%rax
	movq	40(%rdi), %rdi
	movq	%rax, -16(%rsp)
	leaq	(%rax,%rax), %r12
	.p2align 4,,10
	.p2align 3
.L1120:
#APP
# 207 "mem.cc" 1
	# random loop begin (n_chains = $7, payload = $0)
# 0 "" 2
#NO_APP
	xorl	%r14d, %r14d
	cmpq	$0, -16(%rsp)
	jle	.L1121
	xorl	%eax, %eax
	testb	$2, %r12b
	jne	.L1116
	movl	$1, %eax
	movq	%rax, %r14
	subq	%rsi, %r14
	js	.L1131
	movq	%r14, %rax
	subq	%rsi, %rax
	cmovs	%r14, %rax
.L1131:
	movq	(%rbx), %rdx
	movl	$2, %r14d
	movq	(%r11), %rdx
	movq	(%r10), %rdx
	movq	(%r9), %rdx
	movq	(%r8), %rdx
	movq	(%rdi), %rdx
	movq	(%rcx), %rdx
	jmp	.L1116
	.p2align 4,,10
	.p2align 3
.L1122:
	leaq	1(%rdx,%r14), %rax
	movq	%rax, %r15
	subq	%rsi, %r15
	js	.L1134
	movq	%r15, %rax
	subq	%rsi, %rax
	cmovs	%r15, %rax
.L1134:
	salq	$6, %rdx
	addq	$2, %r14
	leaq	(%rbx,%rdx), %r15
	movq	(%r15), %r15
	leaq	(%r11,%rdx), %r15
	movq	(%r15), %r15
	leaq	(%r10,%rdx), %r15
	movq	(%r15), %r15
	leaq	(%r9,%rdx), %r15
	movq	(%r15), %r15
	leaq	(%r8,%rdx), %r15
	movq	(%r15), %r15
	leaq	(%rdi,%rdx), %r15
	addq	%rcx, %rdx
	movq	(%r15), %r15
	movq	(%rdx), %rdx
.L1116:
	leaq	1(%r14,%rax), %rdx
	movq	%rdx, %r15
	subq	%rsi, %r15
	js	.L1115
	movq	%r15, %rdx
	subq	%rsi, %rdx
	cmovs	%r15, %rdx
.L1115:
	salq	$6, %rax
	addq	$2, %r14
	leaq	(%rbx,%rax), %r15
	movq	(%r15), %r15
	leaq	(%r11,%rax), %r15
	movq	(%r15), %r15
	leaq	(%r10,%rax), %r15
	movq	(%r15), %r15
	leaq	(%r9,%rax), %r15
	movq	(%r15), %r15
	leaq	(%r8,%rax), %r15
	movq	(%r15), %r15
	leaq	(%rdi,%rax), %r15
	addq	%rcx, %rax
	movq	(%r15), %r15
	movq	(%rax), %rax
	cmpq	%r12, %r14
	jne	.L1122
	movq	-16(%rsp), %r14
	leaq	1(%r14), %r15
	movq	%rdx, %r14
	salq	$6, %r14
.L1114:
	movq	%rsi, %rax
	subq	%rdx, %rax
	leaq	(%rbx,%r14), %rdx
	movq	(%rdx), %rdx
	leaq	(%r11,%r14), %rdx
	movq	(%rdx), %rdx
	leaq	(%r10,%r14), %rdx
	movq	(%rdx), %rdx
	leaq	(%r9,%r14), %rdx
	movq	(%rdx), %rdx
	leaq	(%r8,%r14), %rdx
	movq	(%rdx), %rdx
	leaq	(%rdi,%r14), %rdx
	addq	%rcx, %r14
	movq	(%rdx), %rdx
	movq	(%r14), %rdx
	cmpq	%r15, %rsi
	jle	.L1123
	leaq	1(%r15,%r15), %r14
	movq	%rbp, %r15
	subq	%r14, %r15
	andl	$2, %r15d
	jne	.L1119
	movq	%rax, %rdx
	subq	%r14, %rdx
	js	.L1149
.L1126:
	salq	$6, %rax
	addq	$2, %r14
	leaq	(%rbx,%rax), %r15
	movq	(%r15), %r15
	leaq	(%r11,%rax), %r15
	movq	(%r15), %r15
	leaq	(%r10,%rax), %r15
	movq	(%r15), %r15
	leaq	(%r9,%rax), %r15
	movq	(%r15), %r15
	leaq	(%r8,%rax), %r15
	movq	(%r15), %r15
	leaq	(%rdi,%rax), %r15
	addq	%rcx, %rax
	movq	(%r15), %r15
	movq	(%rax), %rax
	movq	%rdx, %rax
	jmp	.L1119
	.p2align 4,,10
	.p2align 3
.L1118:
	salq	$6, %rax
	addq	$2, %r14
	leaq	(%rbx,%rax), %r15
	movq	(%r15), %r15
	leaq	(%r11,%rax), %r15
	movq	(%r15), %r15
	leaq	(%r10,%rax), %r15
	movq	(%r15), %r15
	leaq	(%r9,%rax), %r15
	movq	(%r15), %r15
	leaq	(%r8,%rax), %r15
	movq	(%r15), %r15
	leaq	(%rdi,%rax), %r15
	addq	%rcx, %rax
	movq	(%r15), %r15
	movq	(%rax), %rax
	cmpq	%r14, %rbp
	je	.L1117
	movq	%rdx, %rax
	subq	%r14, %rax
	js	.L1150
.L1129:
	salq	$6, %rdx
	addq	$2, %r14
	leaq	(%rbx,%rdx), %r15
	movq	(%r15), %r15
	leaq	(%r11,%rdx), %r15
	movq	(%r15), %r15
	leaq	(%r10,%rdx), %r15
	movq	(%r15), %r15
	leaq	(%r9,%rdx), %r15
	movq	(%r15), %r15
	leaq	(%r8,%rdx), %r15
	movq	(%r15), %r15
	leaq	(%rdi,%rdx), %r15
	addq	%rcx, %rdx
	movq	(%r15), %r15
	movq	(%rdx), %rdx
.L1119:
	movq	%rax, %rdx
	subq	%r14, %rdx
	jns	.L1118
	addq	%rsi, %rdx
	jns	.L1118
	addq	%rsi, %rdx
	jmp	.L1118
	.p2align 4,,10
	.p2align 3
.L1150:
	addq	%rsi, %rax
	jns	.L1129
	addq	%rsi, %rax
	jmp	.L1129
	.p2align 4,,10
	.p2align 3
.L1123:
	movq	%rax, %rdx
	.p2align 4,,10
	.p2align 3
.L1117:
#APP
# 249 "mem.cc" 1
	# random loop end (n_chains = $7, payload = $0)
# 0 "" 2
#NO_APP
	addq	$1, %r13
	cmpq	%r13, -8(%rsp)
	jne	.L1120
	salq	$6, %rdx
	popq	%rbx
	.cfi_remember_state
	.cfi_def_cfa_offset 48
	popq	%rbp
	.cfi_def_cfa_offset 40
	popq	%r12
	.cfi_def_cfa_offset 32
	popq	%r13
	.cfi_def_cfa_offset 24
	popq	%r14
	.cfi_def_cfa_offset 16
	popq	%r15
	.cfi_def_cfa_offset 8
	leaq	(%rcx,%rdx), %rax
	ret
	.p2align 4,,10
	.p2align 3
.L1149:
	.cfi_restore_state
	addq	%rsi, %rdx
	jns	.L1126
	addq	%rsi, %rdx
	jmp	.L1126
	.p2align 4,,10
	.p2align 3
.L1121:
	movl	$1, %r15d
	xorl	%edx, %edx
	jmp	.L1114
.L1148:
	xorl	%edx, %edx
	popq	%rbx
	.cfi_def_cfa_offset 48
	popq	%rbp
	.cfi_def_cfa_offset 40
	popq	%r12
	.cfi_def_cfa_offset 32
	popq	%r13
	.cfi_def_cfa_offset 24
	popq	%r14
	.cfi_def_cfa_offset 16
	popq	%r15
	.cfi_def_cfa_offset 8
	leaq	(%rcx,%rdx), %rax
	ret
	.cfi_endproc
.LFE207:
	.size	_Z13access_randomILi7ELi0EEP6recordPS1_ll, .-_Z13access_randomILi7ELi0EEP6recordPS1_ll
	.section	.text.unlikely._Z13access_randomILi7ELi0EEP6recordPS1_ll,"axG",@progbits,_Z13access_randomILi7ELi0EEP6recordPS1_ll,comdat
.LCOLDE63:
	.section	.text._Z13access_randomILi7ELi0EEP6recordPS1_ll,"axG",@progbits,_Z13access_randomILi7ELi0EEP6recordPS1_ll,comdat
.LHOTE63:
	.section	.text.unlikely._Z13access_randomILi8ELi1EEP6recordPS1_ll,"axG",@progbits,_Z13access_randomILi8ELi1EEP6recordPS1_ll,comdat
.LCOLDB64:
	.section	.text._Z13access_randomILi8ELi1EEP6recordPS1_ll,"axG",@progbits,_Z13access_randomILi8ELi1EEP6recordPS1_ll,comdat
.LHOTB64:
	.p2align 4,,15
	.weak	_Z13access_randomILi8ELi1EEP6recordPS1_ll
	.type	_Z13access_randomILi8ELi1EEP6recordPS1_ll, @function
_Z13access_randomILi8ELi1EEP6recordPS1_ll:
.LFB210:
	.cfi_startproc
	leaq	8(%rsp), %r10
	.cfi_def_cfa 10, 0
	andq	$-32, %rsp
	pushq	-8(%r10)
	pushq	%rbp
	.cfi_escape 0x10,0x6,0x2,0x76,0
	movq	%rsp, %rbp
	pushq	%r15
	pushq	%r14
	pushq	%r13
	pushq	%r12
	pushq	%r10
	.cfi_escape 0xf,0x3,0x76,0x58,0x6
	.cfi_escape 0x10,0xf,0x2,0x76,0x78
	.cfi_escape 0x10,0xe,0x2,0x76,0x70
	.cfi_escape 0x10,0xd,0x2,0x76,0x68
	.cfi_escape 0x10,0xc,0x2,0x76,0x60
	pushq	%rbx
	.cfi_escape 0x10,0x3,0x2,0x76,0x50
	movq	%rdx, -80(%rbp)
	movq	56(%rdi), %rcx
	testq	%rdx, %rdx
	jle	.L1188
	leaq	-1(%rsi), %rax
	movq	(%rdi), %r12
	movq	$0, -64(%rbp)
	movq	8(%rdi), %rbx
	leaq	1(%rsi,%rsi), %r14
	movq	%rax, %rdx
	movq	16(%rdi), %r11
	shrq	$63, %rdx
	movq	%r14, -56(%rbp)
	movq	24(%rdi), %r10
	addq	%rdx, %rax
	movq	32(%rdi), %r9
	sarq	%rax
	movq	40(%rdi), %r8
	movq	%rax, -72(%rbp)
	leaq	(%rax,%rax), %r13
	movq	48(%rdi), %rdi
	.p2align 4,,10
	.p2align 3
.L1160:
#APP
# 207 "mem.cc" 1
	# random loop begin (n_chains = $8, payload = $1)
# 0 "" 2
#NO_APP
	xorl	%r14d, %r14d
	cmpq	$0, -72(%rbp)
	jle	.L1161
	xorl	%eax, %eax
	testb	$2, %r13b
	jne	.L1156
	movl	$1, %eax
	movq	%rax, %r15
	subq	%rsi, %r15
	js	.L1171
	movq	%r15, %rax
	subq	%rsi, %rax
	cmovs	%r15, %rax
.L1171:
	vmovdqa	(%r12), %ymm0
	movl	$2, %r14d
	vmovdqa	32(%r12), %ymm0
	vmovdqa	(%rbx), %ymm0
	vmovdqa	32(%rbx), %ymm0
	vmovdqa	(%r11), %ymm0
	vmovdqa	32(%r11), %ymm0
	vmovdqa	(%r10), %ymm0
	vmovdqa	32(%r10), %ymm0
	vmovdqa	(%r9), %ymm0
	vmovdqa	32(%r9), %ymm0
	vmovdqa	(%r8), %ymm0
	vmovdqa	32(%r8), %ymm0
	vmovdqa	(%rdi), %ymm0
	vmovdqa	32(%rdi), %ymm0
	vmovdqa	(%rcx), %ymm0
	vmovdqa	32(%rcx), %ymm0
	jmp	.L1156
	.p2align 4,,10
	.p2align 3
.L1162:
	leaq	1(%rdx,%r14), %rax
	movq	%rax, %r15
	subq	%rsi, %r15
	js	.L1174
	movq	%r15, %rax
	subq	%rsi, %rax
	cmovs	%r15, %rax
.L1174:
	salq	$6, %rdx
	addq	$2, %r14
	leaq	(%r12,%rdx), %r15
	vmovdqa	(%r15), %ymm0
	vmovdqa	32(%r15), %ymm0
	leaq	(%rbx,%rdx), %r15
	vmovdqa	(%r15), %ymm0
	vmovdqa	32(%r15), %ymm0
	leaq	(%r11,%rdx), %r15
	vmovdqa	(%r15), %ymm0
	vmovdqa	32(%r15), %ymm0
	leaq	(%r10,%rdx), %r15
	vmovdqa	(%r15), %ymm0
	vmovdqa	32(%r15), %ymm0
	leaq	(%r9,%rdx), %r15
	vmovdqa	(%r15), %ymm0
	vmovdqa	32(%r15), %ymm0
	leaq	(%r8,%rdx), %r15
	vmovdqa	(%r15), %ymm0
	vmovdqa	32(%r15), %ymm0
	leaq	(%rdi,%rdx), %r15
	addq	%rcx, %rdx
	vmovdqa	(%r15), %ymm0
	vmovdqa	32(%r15), %ymm0
	vmovdqa	(%rdx), %ymm0
	vmovdqa	32(%rdx), %ymm0
.L1156:
	leaq	1(%r14,%rax), %rdx
	movq	%rdx, %r15
	subq	%rsi, %r15
	js	.L1155
	movq	%r15, %rdx
	subq	%rsi, %rdx
	cmovs	%r15, %rdx
.L1155:
	salq	$6, %rax
	addq	$2, %r14
	leaq	(%r12,%rax), %r15
	vmovdqa	(%r15), %ymm0
	vmovdqa	32(%r15), %ymm0
	leaq	(%rbx,%rax), %r15
	vmovdqa	(%r15), %ymm0
	vmovdqa	32(%r15), %ymm0
	leaq	(%r11,%rax), %r15
	vmovdqa	(%r15), %ymm0
	vmovdqa	32(%r15), %ymm0
	leaq	(%r10,%rax), %r15
	vmovdqa	(%r15), %ymm0
	vmovdqa	32(%r15), %ymm0
	leaq	(%r9,%rax), %r15
	vmovdqa	(%r15), %ymm0
	vmovdqa	32(%r15), %ymm0
	leaq	(%r8,%rax), %r15
	vmovdqa	(%r15), %ymm0
	vmovdqa	32(%r15), %ymm0
	leaq	(%rdi,%rax), %r15
	addq	%rcx, %rax
	vmovdqa	(%r15), %ymm0
	vmovdqa	32(%r15), %ymm0
	vmovdqa	(%rax), %ymm0
	vmovdqa	32(%rax), %ymm0
	cmpq	%r13, %r14
	jne	.L1162
	movq	-72(%rbp), %r14
	leaq	1(%r14), %r15
	movq	%rdx, %r14
	salq	$6, %r14
.L1154:
	movq	%rsi, %rax
	subq	%rdx, %rax
	leaq	(%r12,%r14), %rdx
	vmovdqa	(%rdx), %ymm0
	vmovdqa	32(%rdx), %ymm0
	leaq	(%rbx,%r14), %rdx
	vmovdqa	(%rdx), %ymm0
	vmovdqa	32(%rdx), %ymm0
	leaq	(%r11,%r14), %rdx
	vmovdqa	(%rdx), %ymm0
	vmovdqa	32(%rdx), %ymm0
	leaq	(%r10,%r14), %rdx
	vmovdqa	(%rdx), %ymm0
	vmovdqa	32(%rdx), %ymm0
	leaq	(%r9,%r14), %rdx
	vmovdqa	(%rdx), %ymm0
	vmovdqa	32(%rdx), %ymm0
	leaq	(%r8,%r14), %rdx
	vmovdqa	(%rdx), %ymm0
	vmovdqa	32(%rdx), %ymm0
	leaq	(%rdi,%r14), %rdx
	addq	%rcx, %r14
	vmovdqa	(%rdx), %ymm0
	vmovdqa	32(%rdx), %ymm0
	vmovdqa	(%r14), %ymm0
	vmovdqa	32(%r14), %ymm0
	cmpq	%r15, %rsi
	jle	.L1163
	leaq	1(%r15,%r15), %r14
	movq	-56(%rbp), %r15
	subq	%r14, %r15
	andl	$2, %r15d
	jne	.L1159
	movq	%rax, %rdx
	subq	%r14, %rdx
	js	.L1189
.L1166:
	salq	$6, %rax
	addq	$2, %r14
	leaq	(%r12,%rax), %r15
	vmovdqa	(%r15), %ymm0
	vmovdqa	32(%r15), %ymm0
	leaq	(%rbx,%rax), %r15
	vmovdqa	(%r15), %ymm0
	vmovdqa	32(%r15), %ymm0
	leaq	(%r11,%rax), %r15
	vmovdqa	(%r15), %ymm0
	vmovdqa	32(%r15), %ymm0
	leaq	(%r10,%rax), %r15
	vmovdqa	(%r15), %ymm0
	vmovdqa	32(%r15), %ymm0
	leaq	(%r9,%rax), %r15
	vmovdqa	(%r15), %ymm0
	vmovdqa	32(%r15), %ymm0
	leaq	(%r8,%rax), %r15
	vmovdqa	(%r15), %ymm0
	vmovdqa	32(%r15), %ymm0
	leaq	(%rdi,%rax), %r15
	addq	%rcx, %rax
	vmovdqa	(%r15), %ymm0
	vmovdqa	32(%r15), %ymm0
	vmovdqa	(%rax), %ymm0
	vmovdqa	32(%rax), %ymm0
	movq	%rdx, %rax
	jmp	.L1159
	.p2align 4,,10
	.p2align 3
.L1158:
	salq	$6, %rax
	addq	$2, %r14
	leaq	(%r12,%rax), %r15
	vmovdqa	(%r15), %ymm0
	vmovdqa	32(%r15), %ymm0
	leaq	(%rbx,%rax), %r15
	vmovdqa	(%r15), %ymm0
	vmovdqa	32(%r15), %ymm0
	leaq	(%r11,%rax), %r15
	vmovdqa	(%r15), %ymm0
	vmovdqa	32(%r15), %ymm0
	leaq	(%r10,%rax), %r15
	vmovdqa	(%r15), %ymm0
	vmovdqa	32(%r15), %ymm0
	leaq	(%r9,%rax), %r15
	vmovdqa	(%r15), %ymm0
	vmovdqa	32(%r15), %ymm0
	leaq	(%r8,%rax), %r15
	vmovdqa	(%r15), %ymm0
	vmovdqa	32(%r15), %ymm0
	leaq	(%rdi,%rax), %r15
	addq	%rcx, %rax
	vmovdqa	(%r15), %ymm0
	vmovdqa	32(%r15), %ymm0
	vmovdqa	(%rax), %ymm0
	vmovdqa	32(%rax), %ymm0
	cmpq	%r14, -56(%rbp)
	je	.L1157
	movq	%rdx, %rax
	subq	%r14, %rax
	js	.L1190
.L1169:
	salq	$6, %rdx
	addq	$2, %r14
	leaq	(%r12,%rdx), %r15
	vmovdqa	(%r15), %ymm0
	vmovdqa	32(%r15), %ymm0
	leaq	(%rbx,%rdx), %r15
	vmovdqa	(%r15), %ymm0
	vmovdqa	32(%r15), %ymm0
	leaq	(%r11,%rdx), %r15
	vmovdqa	(%r15), %ymm0
	vmovdqa	32(%r15), %ymm0
	leaq	(%r10,%rdx), %r15
	vmovdqa	(%r15), %ymm0
	vmovdqa	32(%r15), %ymm0
	leaq	(%r9,%rdx), %r15
	vmovdqa	(%r15), %ymm0
	vmovdqa	32(%r15), %ymm0
	leaq	(%r8,%rdx), %r15
	vmovdqa	(%r15), %ymm0
	vmovdqa	32(%r15), %ymm0
	leaq	(%rdi,%rdx), %r15
	addq	%rcx, %rdx
	vmovdqa	(%r15), %ymm0
	vmovdqa	32(%r15), %ymm0
	vmovdqa	(%rdx), %ymm0
	vmovdqa	32(%rdx), %ymm0
.L1159:
	movq	%rax, %rdx
	subq	%r14, %rdx
	jns	.L1158
	addq	%rsi, %rdx
	jns	.L1158
	addq	%rsi, %rdx
	jmp	.L1158
	.p2align 4,,10
	.p2align 3
.L1190:
	addq	%rsi, %rax
	jns	.L1169
	addq	%rsi, %rax
	jmp	.L1169
	.p2align 4,,10
	.p2align 3
.L1163:
	movq	%rax, %rdx
	.p2align 4,,10
	.p2align 3
.L1157:
#APP
# 249 "mem.cc" 1
	# random loop end (n_chains = $8, payload = $1)
# 0 "" 2
#NO_APP
	addq	$1, -64(%rbp)
	movq	-64(%rbp), %r14
	cmpq	%r14, -80(%rbp)
	jne	.L1160
	salq	$6, %rdx
	vzeroupper
.L1153:
	leaq	(%rcx,%rdx), %rax
	popq	%rbx
	popq	%rsi
	.cfi_remember_state
	.cfi_def_cfa 10, 0
	popq	%r12
	popq	%r13
	popq	%r14
	popq	%r15
	popq	%rbp
	leaq	-8(%rsi), %rsp
	.cfi_def_cfa 7, 8
	ret
	.p2align 4,,10
	.p2align 3
.L1189:
	.cfi_restore_state
	addq	%rsi, %rdx
	jns	.L1166
	addq	%rsi, %rdx
	jmp	.L1166
	.p2align 4,,10
	.p2align 3
.L1161:
	movl	$1, %r15d
	xorl	%edx, %edx
	jmp	.L1154
.L1188:
	xorl	%edx, %edx
	jmp	.L1153
	.cfi_endproc
.LFE210:
	.size	_Z13access_randomILi8ELi1EEP6recordPS1_ll, .-_Z13access_randomILi8ELi1EEP6recordPS1_ll
	.section	.text.unlikely._Z13access_randomILi8ELi1EEP6recordPS1_ll,"axG",@progbits,_Z13access_randomILi8ELi1EEP6recordPS1_ll,comdat
.LCOLDE64:
	.section	.text._Z13access_randomILi8ELi1EEP6recordPS1_ll,"axG",@progbits,_Z13access_randomILi8ELi1EEP6recordPS1_ll,comdat
.LHOTE64:
	.section	.text.unlikely._Z13access_randomILi8ELi0EEP6recordPS1_ll,"axG",@progbits,_Z13access_randomILi8ELi0EEP6recordPS1_ll,comdat
.LCOLDB65:
	.section	.text._Z13access_randomILi8ELi0EEP6recordPS1_ll,"axG",@progbits,_Z13access_randomILi8ELi0EEP6recordPS1_ll,comdat
.LHOTB65:
	.p2align 4,,15
	.weak	_Z13access_randomILi8ELi0EEP6recordPS1_ll
	.type	_Z13access_randomILi8ELi0EEP6recordPS1_ll, @function
_Z13access_randomILi8ELi0EEP6recordPS1_ll:
.LFB213:
	.cfi_startproc
	pushq	%r15
	.cfi_def_cfa_offset 16
	.cfi_offset 15, -16
	xorl	%eax, %eax
	pushq	%r14
	.cfi_def_cfa_offset 24
	.cfi_offset 14, -24
	pushq	%r13
	.cfi_def_cfa_offset 32
	.cfi_offset 13, -32
	pushq	%r12
	.cfi_def_cfa_offset 40
	.cfi_offset 12, -40
	pushq	%rbp
	.cfi_def_cfa_offset 48
	.cfi_offset 6, -48
	pushq	%rbx
	.cfi_def_cfa_offset 56
	.cfi_offset 3, -56
	movq	56(%rdi), %rcx
	movq	%rdx, -8(%rsp)
	testq	%rdx, %rdx
	jle	.L1193
	leaq	-1(%rsi), %rax
	movq	(%rdi), %rbp
	movq	$0, -24(%rsp)
	movq	8(%rdi), %rbx
	leaq	1(%rsi,%rsi), %r12
	movq	%rax, %rdx
	movq	16(%rdi), %r11
	shrq	$63, %rdx
	movq	24(%rdi), %r10
	addq	%rdx, %rax
	movq	32(%rdi), %r9
	sarq	%rax
	movq	40(%rdi), %r8
	movq	%rax, -16(%rsp)
	leaq	(%rax,%rax), %r13
	movq	48(%rdi), %rdi
	.p2align 4,,10
	.p2align 3
.L1200:
#APP
# 207 "mem.cc" 1
	# random loop begin (n_chains = $8, payload = $0)
# 0 "" 2
#NO_APP
	cmpq	$0, -16(%rsp)
	jle	.L1201
	xorl	%r14d, %r14d
	xorl	%eax, %eax
	testb	$2, %r13b
	jne	.L1196
	movl	$1, %eax
	movq	%rax, %r14
	subq	%rsi, %r14
	js	.L1211
	movq	%r14, %rax
	subq	%rsi, %rax
	cmovs	%r14, %rax
.L1211:
	movq	0(%rbp), %rdx
	movl	$2, %r14d
	movq	(%rbx), %rdx
	movq	(%r11), %rdx
	movq	(%r10), %rdx
	movq	(%r9), %rdx
	movq	(%r8), %rdx
	movq	(%rdi), %rdx
	movq	(%rcx), %rdx
	jmp	.L1196
	.p2align 4,,10
	.p2align 3
.L1202:
	leaq	1(%rdx,%r14), %rax
	movq	%rax, %r15
	subq	%rsi, %r15
	js	.L1214
	movq	%r15, %rax
	subq	%rsi, %rax
	cmovs	%r15, %rax
.L1214:
	salq	$6, %rdx
	addq	$2, %r14
	leaq	0(%rbp,%rdx), %r15
	movq	(%r15), %r15
	leaq	(%rbx,%rdx), %r15
	movq	(%r15), %r15
	leaq	(%r11,%rdx), %r15
	movq	(%r15), %r15
	leaq	(%r10,%rdx), %r15
	movq	(%r15), %r15
	leaq	(%r9,%rdx), %r15
	movq	(%r15), %r15
	leaq	(%r8,%rdx), %r15
	movq	(%r15), %r15
	leaq	(%rdi,%rdx), %r15
	addq	%rcx, %rdx
	movq	(%r15), %r15
	movq	(%rdx), %rdx
.L1196:
	leaq	1(%r14,%rax), %rdx
	movq	%rdx, %r15
	subq	%rsi, %r15
	js	.L1195
	movq	%r15, %rdx
	subq	%rsi, %rdx
	cmovs	%r15, %rdx
.L1195:
	salq	$6, %rax
	addq	$2, %r14
	leaq	0(%rbp,%rax), %r15
	movq	(%r15), %r15
	leaq	(%rbx,%rax), %r15
	movq	(%r15), %r15
	leaq	(%r11,%rax), %r15
	movq	(%r15), %r15
	leaq	(%r10,%rax), %r15
	movq	(%r15), %r15
	leaq	(%r9,%rax), %r15
	movq	(%r15), %r15
	leaq	(%r8,%rax), %r15
	movq	(%r15), %r15
	leaq	(%rdi,%rax), %r15
	addq	%rcx, %rax
	movq	(%r15), %r15
	movq	(%rax), %rax
	cmpq	%r13, %r14
	jne	.L1202
	movq	-16(%rsp), %r14
	movq	%rdx, %rax
	salq	$6, %rax
	leaq	1(%r14), %r14
.L1194:
	movq	%rsi, %r15
	subq	%rdx, %r15
	movq	%r15, %rdx
	leaq	0(%rbp,%rax), %r15
	movq	(%r15), %r15
	leaq	(%rbx,%rax), %r15
	movq	(%r15), %r15
	leaq	(%r11,%rax), %r15
	movq	(%r15), %r15
	leaq	(%r10,%rax), %r15
	movq	(%r15), %r15
	leaq	(%r9,%rax), %r15
	movq	(%r15), %r15
	leaq	(%r8,%rax), %r15
	movq	(%r15), %r15
	leaq	(%rdi,%rax), %r15
	addq	%rcx, %rax
	movq	(%r15), %r15
	movq	(%rax), %rax
	cmpq	%r14, %rsi
	jle	.L1203
	leaq	1(%r14,%r14), %r14
	movq	%r12, %rax
	subq	%r14, %rax
	testb	$2, %al
	jne	.L1199
	movq	%rdx, %rax
	subq	%r14, %rax
	js	.L1228
.L1206:
	salq	$6, %rdx
	addq	$2, %r14
	leaq	0(%rbp,%rdx), %r15
	movq	(%r15), %r15
	leaq	(%rbx,%rdx), %r15
	movq	(%r15), %r15
	leaq	(%r11,%rdx), %r15
	movq	(%r15), %r15
	leaq	(%r10,%rdx), %r15
	movq	(%r15), %r15
	leaq	(%r9,%rdx), %r15
	movq	(%r15), %r15
	leaq	(%r8,%rdx), %r15
	movq	(%r15), %r15
	leaq	(%rdi,%rdx), %r15
	addq	%rcx, %rdx
	movq	(%r15), %r15
	movq	(%rdx), %rdx
	movq	%rax, %rdx
	jmp	.L1199
	.p2align 4,,10
	.p2align 3
.L1198:
	salq	$6, %rdx
	addq	$2, %r14
	leaq	0(%rbp,%rdx), %r15
	movq	(%r15), %r15
	leaq	(%rbx,%rdx), %r15
	movq	(%r15), %r15
	leaq	(%r11,%rdx), %r15
	movq	(%r15), %r15
	leaq	(%r10,%rdx), %r15
	movq	(%r15), %r15
	leaq	(%r9,%rdx), %r15
	movq	(%r15), %r15
	leaq	(%r8,%rdx), %r15
	movq	(%r15), %r15
	leaq	(%rdi,%rdx), %r15
	addq	%rcx, %rdx
	movq	(%r15), %r15
	movq	(%rdx), %rdx
	cmpq	%r14, %r12
	je	.L1197
	movq	%rax, %rdx
	subq	%r14, %rdx
	js	.L1229
.L1209:
	salq	$6, %rax
	addq	$2, %r14
	leaq	0(%rbp,%rax), %r15
	movq	(%r15), %r15
	leaq	(%rbx,%rax), %r15
	movq	(%r15), %r15
	leaq	(%r11,%rax), %r15
	movq	(%r15), %r15
	leaq	(%r10,%rax), %r15
	movq	(%r15), %r15
	leaq	(%r9,%rax), %r15
	movq	(%r15), %r15
	leaq	(%r8,%rax), %r15
	movq	(%r15), %r15
	leaq	(%rdi,%rax), %r15
	addq	%rcx, %rax
	movq	(%r15), %r15
	movq	(%rax), %rax
.L1199:
	movq	%rdx, %rax
	subq	%r14, %rax
	jns	.L1198
	addq	%rsi, %rax
	jns	.L1198
	addq	%rsi, %rax
	jmp	.L1198
	.p2align 4,,10
	.p2align 3
.L1229:
	addq	%rsi, %rdx
	jns	.L1209
	addq	%rsi, %rdx
	jmp	.L1209
	.p2align 4,,10
	.p2align 3
.L1203:
	movq	%rdx, %rax
	.p2align 4,,10
	.p2align 3
.L1197:
#APP
# 249 "mem.cc" 1
	# random loop end (n_chains = $8, payload = $0)
# 0 "" 2
#NO_APP
	addq	$1, -24(%rsp)
	movq	-24(%rsp), %r14
	cmpq	%r14, -8(%rsp)
	jne	.L1200
	salq	$6, %rax
.L1193:
	popq	%rbx
	.cfi_remember_state
	.cfi_def_cfa_offset 48
	addq	%rcx, %rax
	popq	%rbp
	.cfi_def_cfa_offset 40
	popq	%r12
	.cfi_def_cfa_offset 32
	popq	%r13
	.cfi_def_cfa_offset 24
	popq	%r14
	.cfi_def_cfa_offset 16
	popq	%r15
	.cfi_def_cfa_offset 8
	ret
	.p2align 4,,10
	.p2align 3
.L1228:
	.cfi_restore_state
	addq	%rsi, %rax
	jns	.L1206
	addq	%rsi, %rax
	jmp	.L1206
	.p2align 4,,10
	.p2align 3
.L1201:
	xorl	%eax, %eax
	movl	$1, %r14d
	xorl	%edx, %edx
	jmp	.L1194
	.cfi_endproc
.LFE213:
	.size	_Z13access_randomILi8ELi0EEP6recordPS1_ll, .-_Z13access_randomILi8ELi0EEP6recordPS1_ll
	.section	.text.unlikely._Z13access_randomILi8ELi0EEP6recordPS1_ll,"axG",@progbits,_Z13access_randomILi8ELi0EEP6recordPS1_ll,comdat
.LCOLDE65:
	.section	.text._Z13access_randomILi8ELi0EEP6recordPS1_ll,"axG",@progbits,_Z13access_randomILi8ELi0EEP6recordPS1_ll,comdat
.LHOTE65:
	.section	.text.unlikely._Z13access_randomILi9ELi1EEP6recordPS1_ll,"axG",@progbits,_Z13access_randomILi9ELi1EEP6recordPS1_ll,comdat
.LCOLDB66:
	.section	.text._Z13access_randomILi9ELi1EEP6recordPS1_ll,"axG",@progbits,_Z13access_randomILi9ELi1EEP6recordPS1_ll,comdat
.LHOTB66:
	.p2align 4,,15
	.weak	_Z13access_randomILi9ELi1EEP6recordPS1_ll
	.type	_Z13access_randomILi9ELi1EEP6recordPS1_ll, @function
_Z13access_randomILi9ELi1EEP6recordPS1_ll:
.LFB216:
	.cfi_startproc
	leaq	8(%rsp), %r10
	.cfi_def_cfa 10, 0
	andq	$-32, %rsp
	pushq	-8(%r10)
	pushq	%rbp
	.cfi_escape 0x10,0x6,0x2,0x76,0
	movq	%rsp, %rbp
	pushq	%r15
	pushq	%r14
	pushq	%r13
	pushq	%r12
	pushq	%r10
	.cfi_escape 0xf,0x3,0x76,0x58,0x6
	.cfi_escape 0x10,0xf,0x2,0x76,0x78
	.cfi_escape 0x10,0xe,0x2,0x76,0x70
	.cfi_escape 0x10,0xd,0x2,0x76,0x68
	.cfi_escape 0x10,0xc,0x2,0x76,0x60
	pushq	%rbx
	.cfi_escape 0x10,0x3,0x2,0x76,0x50
	movq	%rdx, -88(%rbp)
	movq	64(%rdi), %rcx
	testq	%rdx, %rdx
	jle	.L1267
	leaq	-1(%rsi), %rax
	movq	(%rdi), %r13
	movq	$0, -72(%rbp)
	movq	8(%rdi), %r12
	leaq	1(%rsi,%rsi), %r14
	movq	%rax, %rdx
	shrq	$63, %rdx
	movq	16(%rdi), %rbx
	movq	%r14, -64(%rbp)
	movq	24(%rdi), %r11
	addq	%rdx, %rax
	movq	32(%rdi), %r10
	sarq	%rax
	movq	40(%rdi), %r9
	movq	%rax, -80(%rbp)
	addq	%rax, %rax
	movq	48(%rdi), %r8
	movq	%rax, -56(%rbp)
	movq	56(%rdi), %rdi
	.p2align 4,,10
	.p2align 3
.L1239:
#APP
# 207 "mem.cc" 1
	# random loop begin (n_chains = $9, payload = $1)
# 0 "" 2
#NO_APP
	xorl	%r14d, %r14d
	cmpq	$0, -80(%rbp)
	jle	.L1240
	xorl	%eax, %eax
	testb	$2, -56(%rbp)
	jne	.L1235
	movl	$1, %eax
	movq	%rax, %r15
	subq	%rsi, %r15
	js	.L1250
	movq	%r15, %rax
	subq	%rsi, %rax
	cmovs	%r15, %rax
.L1250:
	vmovdqa	0(%r13), %ymm0
	movl	$2, %r14d
	vmovdqa	32(%r13), %ymm0
	vmovdqa	(%r12), %ymm0
	vmovdqa	32(%r12), %ymm0
	vmovdqa	(%rbx), %ymm0
	vmovdqa	32(%rbx), %ymm0
	vmovdqa	(%r11), %ymm0
	vmovdqa	32(%r11), %ymm0
	vmovdqa	(%r10), %ymm0
	vmovdqa	32(%r10), %ymm0
	vmovdqa	(%r9), %ymm0
	vmovdqa	32(%r9), %ymm0
	vmovdqa	(%r8), %ymm0
	vmovdqa	32(%r8), %ymm0
	vmovdqa	(%rdi), %ymm0
	vmovdqa	32(%rdi), %ymm0
	vmovdqa	(%rcx), %ymm0
	vmovdqa	32(%rcx), %ymm0
	jmp	.L1235
	.p2align 4,,10
	.p2align 3
.L1241:
	leaq	1(%rdx,%r14), %rax
	movq	%rax, %r15
	subq	%rsi, %r15
	js	.L1253
	movq	%r15, %rax
	subq	%rsi, %rax
	cmovs	%r15, %rax
.L1253:
	salq	$6, %rdx
	addq	$2, %r14
	leaq	0(%r13,%rdx), %r15
	vmovdqa	(%r15), %ymm0
	vmovdqa	32(%r15), %ymm0
	leaq	(%r12,%rdx), %r15
	vmovdqa	(%r15), %ymm0
	vmovdqa	32(%r15), %ymm0
	leaq	(%rbx,%rdx), %r15
	vmovdqa	(%r15), %ymm0
	vmovdqa	32(%r15), %ymm0
	leaq	(%r11,%rdx), %r15
	vmovdqa	(%r15), %ymm0
	vmovdqa	32(%r15), %ymm0
	leaq	(%r10,%rdx), %r15
	vmovdqa	(%r15), %ymm0
	vmovdqa	32(%r15), %ymm0
	leaq	(%r9,%rdx), %r15
	vmovdqa	(%r15), %ymm0
	vmovdqa	32(%r15), %ymm0
	leaq	(%r8,%rdx), %r15
	vmovdqa	(%r15), %ymm0
	vmovdqa	32(%r15), %ymm0
	leaq	(%rdi,%rdx), %r15
	addq	%rcx, %rdx
	vmovdqa	(%r15), %ymm0
	vmovdqa	32(%r15), %ymm0
	vmovdqa	(%rdx), %ymm0
	vmovdqa	32(%rdx), %ymm0
.L1235:
	leaq	1(%r14,%rax), %rdx
	movq	%rdx, %r15
	subq	%rsi, %r15
	js	.L1234
	movq	%r15, %rdx
	subq	%rsi, %rdx
	cmovs	%r15, %rdx
.L1234:
	salq	$6, %rax
	addq	$2, %r14
	leaq	0(%r13,%rax), %r15
	vmovdqa	(%r15), %ymm0
	vmovdqa	32(%r15), %ymm0
	leaq	(%r12,%rax), %r15
	vmovdqa	(%r15), %ymm0
	vmovdqa	32(%r15), %ymm0
	leaq	(%rbx,%rax), %r15
	vmovdqa	(%r15), %ymm0
	vmovdqa	32(%r15), %ymm0
	leaq	(%r11,%rax), %r15
	vmovdqa	(%r15), %ymm0
	vmovdqa	32(%r15), %ymm0
	leaq	(%r10,%rax), %r15
	vmovdqa	(%r15), %ymm0
	vmovdqa	32(%r15), %ymm0
	leaq	(%r9,%rax), %r15
	vmovdqa	(%r15), %ymm0
	vmovdqa	32(%r15), %ymm0
	leaq	(%r8,%rax), %r15
	vmovdqa	(%r15), %ymm0
	vmovdqa	32(%r15), %ymm0
	leaq	(%rdi,%rax), %r15
	addq	%rcx, %rax
	vmovdqa	(%r15), %ymm0
	vmovdqa	32(%r15), %ymm0
	vmovdqa	(%rax), %ymm0
	vmovdqa	32(%rax), %ymm0
	cmpq	-56(%rbp), %r14
	jne	.L1241
	movq	-80(%rbp), %r14
	leaq	1(%r14), %r15
	movq	%rdx, %r14
	salq	$6, %r14
.L1233:
	movq	%rsi, %rax
	subq	%rdx, %rax
	leaq	0(%r13,%r14), %rdx
	vmovdqa	(%rdx), %ymm0
	vmovdqa	32(%rdx), %ymm0
	leaq	(%r12,%r14), %rdx
	vmovdqa	(%rdx), %ymm0
	vmovdqa	32(%rdx), %ymm0
	leaq	(%rbx,%r14), %rdx
	vmovdqa	(%rdx), %ymm0
	vmovdqa	32(%rdx), %ymm0
	leaq	(%r11,%r14), %rdx
	vmovdqa	(%rdx), %ymm0
	vmovdqa	32(%rdx), %ymm0
	leaq	(%r10,%r14), %rdx
	vmovdqa	(%rdx), %ymm0
	vmovdqa	32(%rdx), %ymm0
	leaq	(%r9,%r14), %rdx
	vmovdqa	(%rdx), %ymm0
	vmovdqa	32(%rdx), %ymm0
	leaq	(%r8,%r14), %rdx
	vmovdqa	(%rdx), %ymm0
	vmovdqa	32(%rdx), %ymm0
	leaq	(%rdi,%r14), %rdx
	addq	%rcx, %r14
	vmovdqa	(%rdx), %ymm0
	vmovdqa	32(%rdx), %ymm0
	vmovdqa	(%r14), %ymm0
	vmovdqa	32(%r14), %ymm0
	cmpq	%r15, %rsi
	jle	.L1242
	leaq	1(%r15,%r15), %r14
	movq	-64(%rbp), %r15
	subq	%r14, %r15
	andl	$2, %r15d
	jne	.L1238
	movq	%rax, %rdx
	subq	%r14, %rdx
	js	.L1268
.L1245:
	salq	$6, %rax
	addq	$2, %r14
	leaq	0(%r13,%rax), %r15
	vmovdqa	(%r15), %ymm0
	vmovdqa	32(%r15), %ymm0
	leaq	(%r12,%rax), %r15
	vmovdqa	(%r15), %ymm0
	vmovdqa	32(%r15), %ymm0
	leaq	(%rbx,%rax), %r15
	vmovdqa	(%r15), %ymm0
	vmovdqa	32(%r15), %ymm0
	leaq	(%r11,%rax), %r15
	vmovdqa	(%r15), %ymm0
	vmovdqa	32(%r15), %ymm0
	leaq	(%r10,%rax), %r15
	vmovdqa	(%r15), %ymm0
	vmovdqa	32(%r15), %ymm0
	leaq	(%r9,%rax), %r15
	vmovdqa	(%r15), %ymm0
	vmovdqa	32(%r15), %ymm0
	leaq	(%r8,%rax), %r15
	vmovdqa	(%r15), %ymm0
	vmovdqa	32(%r15), %ymm0
	leaq	(%rdi,%rax), %r15
	addq	%rcx, %rax
	vmovdqa	(%r15), %ymm0
	vmovdqa	32(%r15), %ymm0
	vmovdqa	(%rax), %ymm0
	vmovdqa	32(%rax), %ymm0
	movq	%rdx, %rax
	jmp	.L1238
	.p2align 4,,10
	.p2align 3
.L1237:
	salq	$6, %rax
	addq	$2, %r14
	leaq	0(%r13,%rax), %r15
	vmovdqa	(%r15), %ymm0
	vmovdqa	32(%r15), %ymm0
	leaq	(%r12,%rax), %r15
	vmovdqa	(%r15), %ymm0
	vmovdqa	32(%r15), %ymm0
	leaq	(%rbx,%rax), %r15
	vmovdqa	(%r15), %ymm0
	vmovdqa	32(%r15), %ymm0
	leaq	(%r11,%rax), %r15
	vmovdqa	(%r15), %ymm0
	vmovdqa	32(%r15), %ymm0
	leaq	(%r10,%rax), %r15
	vmovdqa	(%r15), %ymm0
	vmovdqa	32(%r15), %ymm0
	leaq	(%r9,%rax), %r15
	vmovdqa	(%r15), %ymm0
	vmovdqa	32(%r15), %ymm0
	leaq	(%r8,%rax), %r15
	vmovdqa	(%r15), %ymm0
	vmovdqa	32(%r15), %ymm0
	leaq	(%rdi,%rax), %r15
	addq	%rcx, %rax
	vmovdqa	(%r15), %ymm0
	vmovdqa	32(%r15), %ymm0
	vmovdqa	(%rax), %ymm0
	vmovdqa	32(%rax), %ymm0
	cmpq	%r14, -64(%rbp)
	je	.L1236
	movq	%rdx, %rax
	subq	%r14, %rax
	js	.L1269
.L1248:
	salq	$6, %rdx
	addq	$2, %r14
	leaq	0(%r13,%rdx), %r15
	vmovdqa	(%r15), %ymm0
	vmovdqa	32(%r15), %ymm0
	leaq	(%r12,%rdx), %r15
	vmovdqa	(%r15), %ymm0
	vmovdqa	32(%r15), %ymm0
	leaq	(%rbx,%rdx), %r15
	vmovdqa	(%r15), %ymm0
	vmovdqa	32(%r15), %ymm0
	leaq	(%r11,%rdx), %r15
	vmovdqa	(%r15), %ymm0
	vmovdqa	32(%r15), %ymm0
	leaq	(%r10,%rdx), %r15
	vmovdqa	(%r15), %ymm0
	vmovdqa	32(%r15), %ymm0
	leaq	(%r9,%rdx), %r15
	vmovdqa	(%r15), %ymm0
	vmovdqa	32(%r15), %ymm0
	leaq	(%r8,%rdx), %r15
	vmovdqa	(%r15), %ymm0
	vmovdqa	32(%r15), %ymm0
	leaq	(%rdi,%rdx), %r15
	addq	%rcx, %rdx
	vmovdqa	(%r15), %ymm0
	vmovdqa	32(%r15), %ymm0
	vmovdqa	(%rdx), %ymm0
	vmovdqa	32(%rdx), %ymm0
.L1238:
	movq	%rax, %rdx
	subq	%r14, %rdx
	jns	.L1237
	addq	%rsi, %rdx
	jns	.L1237
	addq	%rsi, %rdx
	jmp	.L1237
	.p2align 4,,10
	.p2align 3
.L1269:
	addq	%rsi, %rax
	jns	.L1248
	addq	%rsi, %rax
	jmp	.L1248
	.p2align 4,,10
	.p2align 3
.L1242:
	movq	%rax, %rdx
	.p2align 4,,10
	.p2align 3
.L1236:
#APP
# 249 "mem.cc" 1
	# random loop end (n_chains = $9, payload = $1)
# 0 "" 2
#NO_APP
	addq	$1, -72(%rbp)
	movq	-72(%rbp), %r14
	cmpq	%r14, -88(%rbp)
	jne	.L1239
	salq	$6, %rdx
	vzeroupper
.L1232:
	leaq	(%rcx,%rdx), %rax
	popq	%rbx
	popq	%rsi
	.cfi_remember_state
	.cfi_def_cfa 10, 0
	popq	%r12
	popq	%r13
	popq	%r14
	popq	%r15
	popq	%rbp
	leaq	-8(%rsi), %rsp
	.cfi_def_cfa 7, 8
	ret
	.p2align 4,,10
	.p2align 3
.L1268:
	.cfi_restore_state
	addq	%rsi, %rdx
	jns	.L1245
	addq	%rsi, %rdx
	jmp	.L1245
	.p2align 4,,10
	.p2align 3
.L1240:
	movl	$1, %r15d
	xorl	%edx, %edx
	jmp	.L1233
.L1267:
	xorl	%edx, %edx
	jmp	.L1232
	.cfi_endproc
.LFE216:
	.size	_Z13access_randomILi9ELi1EEP6recordPS1_ll, .-_Z13access_randomILi9ELi1EEP6recordPS1_ll
	.section	.text.unlikely._Z13access_randomILi9ELi1EEP6recordPS1_ll,"axG",@progbits,_Z13access_randomILi9ELi1EEP6recordPS1_ll,comdat
.LCOLDE66:
	.section	.text._Z13access_randomILi9ELi1EEP6recordPS1_ll,"axG",@progbits,_Z13access_randomILi9ELi1EEP6recordPS1_ll,comdat
.LHOTE66:
	.section	.text.unlikely._Z13access_randomILi9ELi0EEP6recordPS1_ll,"axG",@progbits,_Z13access_randomILi9ELi0EEP6recordPS1_ll,comdat
.LCOLDB67:
	.section	.text._Z13access_randomILi9ELi0EEP6recordPS1_ll,"axG",@progbits,_Z13access_randomILi9ELi0EEP6recordPS1_ll,comdat
.LHOTB67:
	.p2align 4,,15
	.weak	_Z13access_randomILi9ELi0EEP6recordPS1_ll
	.type	_Z13access_randomILi9ELi0EEP6recordPS1_ll, @function
_Z13access_randomILi9ELi0EEP6recordPS1_ll:
.LFB219:
	.cfi_startproc
	pushq	%r15
	.cfi_def_cfa_offset 16
	.cfi_offset 15, -16
	pushq	%r14
	.cfi_def_cfa_offset 24
	.cfi_offset 14, -24
	pushq	%r13
	.cfi_def_cfa_offset 32
	.cfi_offset 13, -32
	pushq	%r12
	.cfi_def_cfa_offset 40
	.cfi_offset 12, -40
	pushq	%rbp
	.cfi_def_cfa_offset 48
	.cfi_offset 6, -48
	pushq	%rbx
	.cfi_def_cfa_offset 56
	.cfi_offset 3, -56
	movq	64(%rdi), %rcx
	movq	%rdx, -8(%rsp)
	testq	%rdx, %rdx
	jle	.L1307
	leaq	-1(%rsi), %rax
	movq	(%rdi), %r12
	movq	$0, -24(%rsp)
	movq	8(%rdi), %rbp
	leaq	1(%rsi,%rsi), %r14
	movq	%rax, %rdx
	movq	16(%rdi), %rbx
	shrq	$63, %rdx
	movq	%r14, -32(%rsp)
	movq	24(%rdi), %r11
	addq	%rdx, %rax
	movq	32(%rdi), %r10
	sarq	%rax
	movq	40(%rdi), %r9
	movq	%rax, -16(%rsp)
	leaq	(%rax,%rax), %r13
	movq	48(%rdi), %r8
	movq	56(%rdi), %rdi
	.p2align 4,,10
	.p2align 3
.L1279:
#APP
# 207 "mem.cc" 1
	# random loop begin (n_chains = $9, payload = $0)
# 0 "" 2
#NO_APP
	xorl	%r14d, %r14d
	cmpq	$0, -16(%rsp)
	jle	.L1280
	xorl	%eax, %eax
	testb	$2, %r13b
	jne	.L1275
	movl	$1, %eax
	movq	%rax, %r15
	subq	%rsi, %r15
	js	.L1290
	movq	%r15, %rax
	subq	%rsi, %rax
	cmovs	%r15, %rax
.L1290:
	movq	(%r12), %rdx
	movl	$2, %r14d
	movq	0(%rbp), %rdx
	movq	(%rbx), %rdx
	movq	(%r11), %rdx
	movq	(%r10), %rdx
	movq	(%r9), %rdx
	movq	(%r8), %rdx
	movq	(%rdi), %rdx
	movq	(%rcx), %rdx
	jmp	.L1275
	.p2align 4,,10
	.p2align 3
.L1281:
	leaq	1(%rdx,%r14), %rax
	movq	%rax, %r15
	subq	%rsi, %r15
	js	.L1293
	movq	%r15, %rax
	subq	%rsi, %rax
	cmovs	%r15, %rax
.L1293:
	salq	$6, %rdx
	addq	$2, %r14
	leaq	(%r12,%rdx), %r15
	movq	(%r15), %r15
	leaq	0(%rbp,%rdx), %r15
	movq	(%r15), %r15
	leaq	(%rbx,%rdx), %r15
	movq	(%r15), %r15
	leaq	(%r11,%rdx), %r15
	movq	(%r15), %r15
	leaq	(%r10,%rdx), %r15
	movq	(%r15), %r15
	leaq	(%r9,%rdx), %r15
	movq	(%r15), %r15
	leaq	(%r8,%rdx), %r15
	movq	(%r15), %r15
	leaq	(%rdi,%rdx), %r15
	addq	%rcx, %rdx
	movq	(%r15), %r15
	movq	(%rdx), %rdx
.L1275:
	leaq	1(%r14,%rax), %rdx
	movq	%rdx, %r15
	subq	%rsi, %r15
	js	.L1274
	movq	%r15, %rdx
	subq	%rsi, %rdx
	cmovs	%r15, %rdx
.L1274:
	salq	$6, %rax
	addq	$2, %r14
	leaq	(%r12,%rax), %r15
	movq	(%r15), %r15
	leaq	0(%rbp,%rax), %r15
	movq	(%r15), %r15
	leaq	(%rbx,%rax), %r15
	movq	(%r15), %r15
	leaq	(%r11,%rax), %r15
	movq	(%r15), %r15
	leaq	(%r10,%rax), %r15
	movq	(%r15), %r15
	leaq	(%r9,%rax), %r15
	movq	(%r15), %r15
	leaq	(%r8,%rax), %r15
	movq	(%r15), %r15
	leaq	(%rdi,%rax), %r15
	addq	%rcx, %rax
	movq	(%r15), %r15
	movq	(%rax), %rax
	cmpq	%r13, %r14
	jne	.L1281
	movq	-16(%rsp), %r14
	leaq	1(%r14), %r15
	movq	%rdx, %r14
	salq	$6, %r14
.L1273:
	movq	%rsi, %rax
	subq	%rdx, %rax
	leaq	(%r12,%r14), %rdx
	movq	(%rdx), %rdx
	leaq	0(%rbp,%r14), %rdx
	movq	(%rdx), %rdx
	leaq	(%rbx,%r14), %rdx
	movq	(%rdx), %rdx
	leaq	(%r11,%r14), %rdx
	movq	(%rdx), %rdx
	leaq	(%r10,%r14), %rdx
	movq	(%rdx), %rdx
	leaq	(%r9,%r14), %rdx
	movq	(%rdx), %rdx
	leaq	(%r8,%r14), %rdx
	movq	(%rdx), %rdx
	leaq	(%rdi,%r14), %rdx
	addq	%rcx, %r14
	movq	(%rdx), %rdx
	movq	(%r14), %rdx
	cmpq	%r15, %rsi
	jle	.L1282
	leaq	1(%r15,%r15), %r14
	movq	-32(%rsp), %r15
	subq	%r14, %r15
	andl	$2, %r15d
	jne	.L1278
	movq	%rax, %rdx
	subq	%r14, %rdx
	js	.L1308
.L1285:
	salq	$6, %rax
	addq	$2, %r14
	leaq	(%r12,%rax), %r15
	movq	(%r15), %r15
	leaq	0(%rbp,%rax), %r15
	movq	(%r15), %r15
	leaq	(%rbx,%rax), %r15
	movq	(%r15), %r15
	leaq	(%r11,%rax), %r15
	movq	(%r15), %r15
	leaq	(%r10,%rax), %r15
	movq	(%r15), %r15
	leaq	(%r9,%rax), %r15
	movq	(%r15), %r15
	leaq	(%r8,%rax), %r15
	movq	(%r15), %r15
	leaq	(%rdi,%rax), %r15
	addq	%rcx, %rax
	movq	(%r15), %r15
	movq	(%rax), %rax
	movq	%rdx, %rax
	jmp	.L1278
	.p2align 4,,10
	.p2align 3
.L1277:
	salq	$6, %rax
	addq	$2, %r14
	leaq	(%r12,%rax), %r15
	movq	(%r15), %r15
	leaq	0(%rbp,%rax), %r15
	movq	(%r15), %r15
	leaq	(%rbx,%rax), %r15
	movq	(%r15), %r15
	leaq	(%r11,%rax), %r15
	movq	(%r15), %r15
	leaq	(%r10,%rax), %r15
	movq	(%r15), %r15
	leaq	(%r9,%rax), %r15
	movq	(%r15), %r15
	leaq	(%r8,%rax), %r15
	movq	(%r15), %r15
	leaq	(%rdi,%rax), %r15
	addq	%rcx, %rax
	movq	(%r15), %r15
	movq	(%rax), %rax
	cmpq	%r14, -32(%rsp)
	je	.L1276
	movq	%rdx, %rax
	subq	%r14, %rax
	js	.L1309
.L1288:
	salq	$6, %rdx
	addq	$2, %r14
	leaq	(%r12,%rdx), %r15
	movq	(%r15), %r15
	leaq	0(%rbp,%rdx), %r15
	movq	(%r15), %r15
	leaq	(%rbx,%rdx), %r15
	movq	(%r15), %r15
	leaq	(%r11,%rdx), %r15
	movq	(%r15), %r15
	leaq	(%r10,%rdx), %r15
	movq	(%r15), %r15
	leaq	(%r9,%rdx), %r15
	movq	(%r15), %r15
	leaq	(%r8,%rdx), %r15
	movq	(%r15), %r15
	leaq	(%rdi,%rdx), %r15
	addq	%rcx, %rdx
	movq	(%r15), %r15
	movq	(%rdx), %rdx
.L1278:
	movq	%rax, %rdx
	subq	%r14, %rdx
	jns	.L1277
	addq	%rsi, %rdx
	jns	.L1277
	addq	%rsi, %rdx
	jmp	.L1277
	.p2align 4,,10
	.p2align 3
.L1309:
	addq	%rsi, %rax
	jns	.L1288
	addq	%rsi, %rax
	jmp	.L1288
	.p2align 4,,10
	.p2align 3
.L1282:
	movq	%rax, %rdx
	.p2align 4,,10
	.p2align 3
.L1276:
#APP
# 249 "mem.cc" 1
	# random loop end (n_chains = $9, payload = $0)
# 0 "" 2
#NO_APP
	addq	$1, -24(%rsp)
	movq	-24(%rsp), %r14
	cmpq	%r14, -8(%rsp)
	jne	.L1279
	salq	$6, %rdx
	popq	%rbx
	.cfi_remember_state
	.cfi_def_cfa_offset 48
	popq	%rbp
	.cfi_def_cfa_offset 40
	popq	%r12
	.cfi_def_cfa_offset 32
	popq	%r13
	.cfi_def_cfa_offset 24
	popq	%r14
	.cfi_def_cfa_offset 16
	popq	%r15
	.cfi_def_cfa_offset 8
	leaq	(%rcx,%rdx), %rax
	ret
	.p2align 4,,10
	.p2align 3
.L1308:
	.cfi_restore_state
	addq	%rsi, %rdx
	jns	.L1285
	addq	%rsi, %rdx
	jmp	.L1285
	.p2align 4,,10
	.p2align 3
.L1280:
	movl	$1, %r15d
	xorl	%edx, %edx
	jmp	.L1273
.L1307:
	xorl	%edx, %edx
	popq	%rbx
	.cfi_def_cfa_offset 48
	popq	%rbp
	.cfi_def_cfa_offset 40
	popq	%r12
	.cfi_def_cfa_offset 32
	popq	%r13
	.cfi_def_cfa_offset 24
	popq	%r14
	.cfi_def_cfa_offset 16
	popq	%r15
	.cfi_def_cfa_offset 8
	leaq	(%rcx,%rdx), %rax
	ret
	.cfi_endproc
.LFE219:
	.size	_Z13access_randomILi9ELi0EEP6recordPS1_ll, .-_Z13access_randomILi9ELi0EEP6recordPS1_ll
	.section	.text.unlikely._Z13access_randomILi9ELi0EEP6recordPS1_ll,"axG",@progbits,_Z13access_randomILi9ELi0EEP6recordPS1_ll,comdat
.LCOLDE67:
	.section	.text._Z13access_randomILi9ELi0EEP6recordPS1_ll,"axG",@progbits,_Z13access_randomILi9ELi0EEP6recordPS1_ll,comdat
.LHOTE67:
	.section	.text.unlikely._Z13access_randomILi10ELi1EEP6recordPS1_ll,"axG",@progbits,_Z13access_randomILi10ELi1EEP6recordPS1_ll,comdat
.LCOLDB68:
	.section	.text._Z13access_randomILi10ELi1EEP6recordPS1_ll,"axG",@progbits,_Z13access_randomILi10ELi1EEP6recordPS1_ll,comdat
.LHOTB68:
	.p2align 4,,15
	.weak	_Z13access_randomILi10ELi1EEP6recordPS1_ll
	.type	_Z13access_randomILi10ELi1EEP6recordPS1_ll, @function
_Z13access_randomILi10ELi1EEP6recordPS1_ll:
.LFB222:
	.cfi_startproc
	leaq	8(%rsp), %r10
	.cfi_def_cfa 10, 0
	andq	$-32, %rsp
	movq	%rdi, %rax
	pushq	-8(%r10)
	pushq	%rbp
	.cfi_escape 0x10,0x6,0x2,0x76,0
	movq	%rsp, %rbp
	pushq	%r15
	pushq	%r14
	pushq	%r13
	pushq	%r12
	pushq	%r10
	.cfi_escape 0xf,0x3,0x76,0x58,0x6
	.cfi_escape 0x10,0xf,0x2,0x76,0x78
	.cfi_escape 0x10,0xe,0x2,0x76,0x70
	.cfi_escape 0x10,0xd,0x2,0x76,0x68
	.cfi_escape 0x10,0xc,0x2,0x76,0x60
	pushq	%rbx
	.cfi_escape 0x10,0x3,0x2,0x76,0x50
	movq	%rdx, -96(%rbp)
	testq	%rdx, %rdx
	jle	.L1337
	movq	72(%rdi), %rdi
	leaq	-1(%rsi), %rdx
	movq	$0, -80(%rbp)
	movq	(%rax), %r13
	leaq	1(%rsi,%rsi), %r15
	movq	%rdx, %rcx
	shrq	$63, %rcx
	movq	8(%rax), %r12
	movq	%r15, -72(%rbp)
	addq	%rcx, %rdx
	movq	16(%rax), %rbx
	movq	%rdi, -56(%rbp)
	movq	32(%rax), %r11
	sarq	%rdx
	movq	24(%rax), %rdi
	leaq	(%rdx,%rdx), %r14
	movq	%rdx, -88(%rbp)
	movq	40(%rax), %r10
	movq	%r14, -64(%rbp)
	movq	48(%rax), %r9
	movq	56(%rax), %r8
	movq	64(%rax), %rcx
	.p2align 4,,10
	.p2align 3
.L1319:
#APP
# 207 "mem.cc" 1
	# random loop begin (n_chains = $10, payload = $1)
# 0 "" 2
#NO_APP
	xorl	%r14d, %r14d
	cmpq	$0, -88(%rbp)
	jle	.L1320
	xorl	%eax, %eax
	jmp	.L1315
	.p2align 4,,10
	.p2align 3
.L1321:
	movq	%rdx, %rax
.L1315:
	leaq	1(%r14,%rax), %rdx
	movq	%rdx, %r15
	subq	%rsi, %r15
	js	.L1314
	movq	%r15, %rdx
	subq	%rsi, %rdx
	cmovs	%r15, %rdx
.L1314:
	salq	$6, %rax
	addq	$2, %r14
	leaq	0(%r13,%rax), %r15
	vmovdqa	(%r15), %ymm0
	vmovdqa	32(%r15), %ymm0
	leaq	(%r12,%rax), %r15
	vmovdqa	(%r15), %ymm0
	vmovdqa	32(%r15), %ymm0
	leaq	(%rbx,%rax), %r15
	vmovdqa	(%r15), %ymm0
	vmovdqa	32(%r15), %ymm0
	leaq	(%rdi,%rax), %r15
	vmovdqa	(%r15), %ymm0
	vmovdqa	32(%r15), %ymm0
	leaq	(%r11,%rax), %r15
	vmovdqa	(%r15), %ymm0
	vmovdqa	32(%r15), %ymm0
	leaq	(%r10,%rax), %r15
	vmovdqa	(%r15), %ymm0
	vmovdqa	32(%r15), %ymm0
	leaq	(%r9,%rax), %r15
	vmovdqa	(%r15), %ymm0
	vmovdqa	32(%r15), %ymm0
	leaq	(%r8,%rax), %r15
	vmovdqa	(%r15), %ymm0
	vmovdqa	32(%r15), %ymm0
	leaq	(%rcx,%rax), %r15
	addq	-56(%rbp), %rax
	vmovdqa	(%r15), %ymm0
	vmovdqa	32(%r15), %ymm0
	vmovdqa	(%rax), %ymm0
	vmovdqa	32(%rax), %ymm0
	cmpq	-64(%rbp), %r14
	jne	.L1321
	movq	-88(%rbp), %r15
	movq	%rdx, %r14
	salq	$6, %r14
	leaq	1(%r15), %r15
.L1313:
	movq	%rsi, %rax
	subq	%rdx, %rax
	leaq	0(%r13,%r14), %rdx
	vmovdqa	(%rdx), %ymm0
	vmovdqa	32(%rdx), %ymm0
	leaq	(%r12,%r14), %rdx
	vmovdqa	(%rdx), %ymm0
	vmovdqa	32(%rdx), %ymm0
	leaq	(%rbx,%r14), %rdx
	vmovdqa	(%rdx), %ymm0
	vmovdqa	32(%rdx), %ymm0
	leaq	(%rdi,%r14), %rdx
	vmovdqa	(%rdx), %ymm0
	vmovdqa	32(%rdx), %ymm0
	leaq	(%r11,%r14), %rdx
	vmovdqa	(%rdx), %ymm0
	vmovdqa	32(%rdx), %ymm0
	leaq	(%r10,%r14), %rdx
	vmovdqa	(%rdx), %ymm0
	vmovdqa	32(%rdx), %ymm0
	leaq	(%r9,%r14), %rdx
	vmovdqa	(%rdx), %ymm0
	vmovdqa	32(%rdx), %ymm0
	leaq	(%r8,%r14), %rdx
	vmovdqa	(%rdx), %ymm0
	vmovdqa	32(%rdx), %ymm0
	leaq	(%rcx,%r14), %rdx
	addq	-56(%rbp), %r14
	vmovdqa	(%rdx), %ymm0
	vmovdqa	32(%rdx), %ymm0
	vmovdqa	(%r14), %ymm0
	vmovdqa	32(%r14), %ymm0
	cmpq	%r15, %rsi
	jle	.L1322
	leaq	1(%r15,%r15), %r14
	movq	-72(%rbp), %r15
	subq	%r14, %r15
	andl	$2, %r15d
	jne	.L1318
	movq	%rax, %r15
	subq	%r14, %r15
	js	.L1338
.L1325:
	salq	$6, %rax
	addq	$2, %r14
	leaq	0(%r13,%rax), %rdx
	vmovdqa	(%rdx), %ymm0
	vmovdqa	32(%rdx), %ymm0
	leaq	(%r12,%rax), %rdx
	vmovdqa	(%rdx), %ymm0
	vmovdqa	32(%rdx), %ymm0
	leaq	(%rbx,%rax), %rdx
	vmovdqa	(%rdx), %ymm0
	vmovdqa	32(%rdx), %ymm0
	leaq	(%rdi,%rax), %rdx
	vmovdqa	(%rdx), %ymm0
	vmovdqa	32(%rdx), %ymm0
	leaq	(%r11,%rax), %rdx
	vmovdqa	(%rdx), %ymm0
	vmovdqa	32(%rdx), %ymm0
	leaq	(%r10,%rax), %rdx
	vmovdqa	(%rdx), %ymm0
	vmovdqa	32(%rdx), %ymm0
	leaq	(%r9,%rax), %rdx
	vmovdqa	(%rdx), %ymm0
	vmovdqa	32(%rdx), %ymm0
	leaq	(%r8,%rax), %rdx
	vmovdqa	(%rdx), %ymm0
	vmovdqa	32(%rdx), %ymm0
	leaq	(%rcx,%rax), %rdx
	addq	-56(%rbp), %rax
	vmovdqa	(%rdx), %ymm0
	vmovdqa	32(%rdx), %ymm0
	vmovdqa	(%rax), %ymm0
	vmovdqa	32(%rax), %ymm0
	movq	%r15, %rax
	jmp	.L1318
	.p2align 4,,10
	.p2align 3
.L1317:
	salq	$6, %rax
	addq	$2, %r14
	leaq	0(%r13,%rax), %r15
	vmovdqa	(%r15), %ymm0
	vmovdqa	32(%r15), %ymm0
	leaq	(%r12,%rax), %r15
	vmovdqa	(%r15), %ymm0
	vmovdqa	32(%r15), %ymm0
	leaq	(%rbx,%rax), %r15
	vmovdqa	(%r15), %ymm0
	vmovdqa	32(%r15), %ymm0
	leaq	(%rdi,%rax), %r15
	vmovdqa	(%r15), %ymm0
	vmovdqa	32(%r15), %ymm0
	leaq	(%r11,%rax), %r15
	vmovdqa	(%r15), %ymm0
	vmovdqa	32(%r15), %ymm0
	leaq	(%r10,%rax), %r15
	vmovdqa	(%r15), %ymm0
	vmovdqa	32(%r15), %ymm0
	leaq	(%r9,%rax), %r15
	vmovdqa	(%r15), %ymm0
	vmovdqa	32(%r15), %ymm0
	leaq	(%r8,%rax), %r15
	vmovdqa	(%r15), %ymm0
	vmovdqa	32(%r15), %ymm0
	leaq	(%rcx,%rax), %r15
	addq	-56(%rbp), %rax
	vmovdqa	(%r15), %ymm0
	vmovdqa	32(%r15), %ymm0
	vmovdqa	(%rax), %ymm0
	vmovdqa	32(%rax), %ymm0
	cmpq	%r14, -72(%rbp)
	je	.L1316
	movq	%rdx, %rax
	subq	%r14, %rax
	js	.L1339
.L1328:
	salq	$6, %rdx
	addq	$2, %r14
	leaq	0(%r13,%rdx), %r15
	vmovdqa	(%r15), %ymm0
	vmovdqa	32(%r15), %ymm0
	leaq	(%r12,%rdx), %r15
	vmovdqa	(%r15), %ymm0
	vmovdqa	32(%r15), %ymm0
	leaq	(%rbx,%rdx), %r15
	vmovdqa	(%r15), %ymm0
	vmovdqa	32(%r15), %ymm0
	leaq	(%rdi,%rdx), %r15
	vmovdqa	(%r15), %ymm0
	vmovdqa	32(%r15), %ymm0
	leaq	(%r11,%rdx), %r15
	vmovdqa	(%r15), %ymm0
	vmovdqa	32(%r15), %ymm0
	leaq	(%r10,%rdx), %r15
	vmovdqa	(%r15), %ymm0
	vmovdqa	32(%r15), %ymm0
	leaq	(%r9,%rdx), %r15
	vmovdqa	(%r15), %ymm0
	vmovdqa	32(%r15), %ymm0
	leaq	(%r8,%rdx), %r15
	vmovdqa	(%r15), %ymm0
	vmovdqa	32(%r15), %ymm0
	leaq	(%rcx,%rdx), %r15
	addq	-56(%rbp), %rdx
	vmovdqa	(%r15), %ymm0
	vmovdqa	32(%r15), %ymm0
	vmovdqa	(%rdx), %ymm0
	vmovdqa	32(%rdx), %ymm0
.L1318:
	movq	%rax, %rdx
	subq	%r14, %rdx
	jns	.L1317
	addq	%rsi, %rdx
	jns	.L1317
	addq	%rsi, %rdx
	jmp	.L1317
	.p2align 4,,10
	.p2align 3
.L1339:
	addq	%rsi, %rax
	jns	.L1328
	addq	%rsi, %rax
	jmp	.L1328
.L1322:
	movq	%rax, %rdx
	.p2align 4,,10
	.p2align 3
.L1316:
#APP
# 249 "mem.cc" 1
	# random loop end (n_chains = $10, payload = $1)
# 0 "" 2
#NO_APP
	addq	$1, -80(%rbp)
	movq	-80(%rbp), %r14
	cmpq	%r14, -96(%rbp)
	jne	.L1319
	salq	$6, %rdx
	vzeroupper
	movq	-56(%rbp), %rax
.L1312:
	addq	%rdx, %rax
	popq	%rbx
	popq	%rsi
	.cfi_remember_state
	.cfi_def_cfa 10, 0
	popq	%r12
	popq	%r13
	popq	%r14
	popq	%r15
	popq	%rbp
	leaq	-8(%rsi), %rsp
	.cfi_def_cfa 7, 8
	ret
	.p2align 4,,10
	.p2align 3
.L1338:
	.cfi_restore_state
	addq	%rsi, %r15
	jns	.L1325
	addq	%rsi, %r15
	jmp	.L1325
.L1320:
	movl	$1, %r15d
	xorl	%edx, %edx
	jmp	.L1313
.L1337:
	movq	72(%rdi), %rax
	xorl	%edx, %edx
	movq	%rax, -56(%rbp)
	jmp	.L1312
	.cfi_endproc
.LFE222:
	.size	_Z13access_randomILi10ELi1EEP6recordPS1_ll, .-_Z13access_randomILi10ELi1EEP6recordPS1_ll
	.section	.text.unlikely._Z13access_randomILi10ELi1EEP6recordPS1_ll,"axG",@progbits,_Z13access_randomILi10ELi1EEP6recordPS1_ll,comdat
.LCOLDE68:
	.section	.text._Z13access_randomILi10ELi1EEP6recordPS1_ll,"axG",@progbits,_Z13access_randomILi10ELi1EEP6recordPS1_ll,comdat
.LHOTE68:
	.section	.text.unlikely._Z13access_randomILi10ELi0EEP6recordPS1_ll,"axG",@progbits,_Z13access_randomILi10ELi0EEP6recordPS1_ll,comdat
.LCOLDB69:
	.section	.text._Z13access_randomILi10ELi0EEP6recordPS1_ll,"axG",@progbits,_Z13access_randomILi10ELi0EEP6recordPS1_ll,comdat
.LHOTB69:
	.p2align 4,,15
	.weak	_Z13access_randomILi10ELi0EEP6recordPS1_ll
	.type	_Z13access_randomILi10ELi0EEP6recordPS1_ll, @function
_Z13access_randomILi10ELi0EEP6recordPS1_ll:
.LFB225:
	.cfi_startproc
	pushq	%r15
	.cfi_def_cfa_offset 16
	.cfi_offset 15, -16
	pushq	%r14
	.cfi_def_cfa_offset 24
	.cfi_offset 14, -24
	pushq	%r13
	.cfi_def_cfa_offset 32
	.cfi_offset 13, -32
	pushq	%r12
	.cfi_def_cfa_offset 40
	.cfi_offset 12, -40
	pushq	%rbp
	.cfi_def_cfa_offset 48
	.cfi_offset 6, -48
	pushq	%rbx
	.cfi_def_cfa_offset 56
	.cfi_offset 3, -56
	movq	72(%rdi), %rcx
	movq	%rdx, -8(%rsp)
	testq	%rdx, %rdx
	jle	.L1377
	leaq	-1(%rsi), %rax
	movq	(%rdi), %r13
	movq	$0, -24(%rsp)
	movq	8(%rdi), %r12
	leaq	1(%rsi,%rsi), %r14
	movq	%rax, %rdx
	shrq	$63, %rdx
	movq	16(%rdi), %rbp
	movq	%r14, -32(%rsp)
	movq	24(%rdi), %rbx
	addq	%rdx, %rax
	movq	32(%rdi), %r11
	sarq	%rax
	movq	40(%rdi), %r10
	movq	%rax, -16(%rsp)
	addq	%rax, %rax
	movq	48(%rdi), %r9
	movq	%rax, -40(%rsp)
	movq	56(%rdi), %r8
	movq	64(%rdi), %rdi
	.p2align 4,,10
	.p2align 3
.L1349:
#APP
# 207 "mem.cc" 1
	# random loop begin (n_chains = $10, payload = $0)
# 0 "" 2
#NO_APP
	xorl	%r14d, %r14d
	cmpq	$0, -16(%rsp)
	jle	.L1350
	xorl	%eax, %eax
	testb	$2, -40(%rsp)
	jne	.L1345
	movl	$1, %eax
	movq	%rax, %r15
	subq	%rsi, %r15
	js	.L1360
	movq	%r15, %rax
	subq	%rsi, %rax
	cmovs	%r15, %rax
.L1360:
	movq	0(%r13), %rdx
	movl	$2, %r14d
	movq	(%r12), %rdx
	movq	0(%rbp), %rdx
	movq	(%rbx), %rdx
	movq	(%r11), %rdx
	movq	(%r10), %rdx
	movq	(%r9), %rdx
	movq	(%r8), %rdx
	movq	(%rdi), %rdx
	movq	(%rcx), %rdx
	jmp	.L1345
	.p2align 4,,10
	.p2align 3
.L1351:
	leaq	1(%rdx,%r14), %rax
	movq	%rax, %r15
	subq	%rsi, %r15
	js	.L1363
	movq	%r15, %rax
	subq	%rsi, %rax
	cmovs	%r15, %rax
.L1363:
	salq	$6, %rdx
	addq	$2, %r14
	leaq	0(%r13,%rdx), %r15
	movq	(%r15), %r15
	leaq	(%r12,%rdx), %r15
	movq	(%r15), %r15
	leaq	0(%rbp,%rdx), %r15
	movq	(%r15), %r15
	leaq	(%rbx,%rdx), %r15
	movq	(%r15), %r15
	leaq	(%r11,%rdx), %r15
	movq	(%r15), %r15
	leaq	(%r10,%rdx), %r15
	movq	(%r15), %r15
	leaq	(%r9,%rdx), %r15
	movq	(%r15), %r15
	leaq	(%r8,%rdx), %r15
	movq	(%r15), %r15
	leaq	(%rdi,%rdx), %r15
	addq	%rcx, %rdx
	movq	(%r15), %r15
	movq	(%rdx), %rdx
.L1345:
	leaq	1(%r14,%rax), %rdx
	movq	%rdx, %r15
	subq	%rsi, %r15
	js	.L1344
	movq	%r15, %rdx
	subq	%rsi, %rdx
	cmovs	%r15, %rdx
.L1344:
	salq	$6, %rax
	addq	$2, %r14
	leaq	0(%r13,%rax), %r15
	movq	(%r15), %r15
	leaq	(%r12,%rax), %r15
	movq	(%r15), %r15
	leaq	0(%rbp,%rax), %r15
	movq	(%r15), %r15
	leaq	(%rbx,%rax), %r15
	movq	(%r15), %r15
	leaq	(%r11,%rax), %r15
	movq	(%r15), %r15
	leaq	(%r10,%rax), %r15
	movq	(%r15), %r15
	leaq	(%r9,%rax), %r15
	movq	(%r15), %r15
	leaq	(%r8,%rax), %r15
	movq	(%r15), %r15
	leaq	(%rdi,%rax), %r15
	addq	%rcx, %rax
	movq	(%r15), %r15
	movq	(%rax), %rax
	cmpq	-40(%rsp), %r14
	jne	.L1351
	movq	-16(%rsp), %r14
	leaq	1(%r14), %r15
	movq	%rdx, %r14
	salq	$6, %r14
.L1343:
	movq	%rsi, %rax
	subq	%rdx, %rax
	leaq	0(%r13,%r14), %rdx
	movq	(%rdx), %rdx
	leaq	(%r12,%r14), %rdx
	movq	(%rdx), %rdx
	leaq	0(%rbp,%r14), %rdx
	movq	(%rdx), %rdx
	leaq	(%rbx,%r14), %rdx
	movq	(%rdx), %rdx
	leaq	(%r11,%r14), %rdx
	movq	(%rdx), %rdx
	leaq	(%r10,%r14), %rdx
	movq	(%rdx), %rdx
	leaq	(%r9,%r14), %rdx
	movq	(%rdx), %rdx
	leaq	(%r8,%r14), %rdx
	movq	(%rdx), %rdx
	leaq	(%rdi,%r14), %rdx
	addq	%rcx, %r14
	movq	(%rdx), %rdx
	movq	(%r14), %rdx
	cmpq	%r15, %rsi
	jle	.L1352
	leaq	1(%r15,%r15), %r14
	movq	-32(%rsp), %r15
	subq	%r14, %r15
	andl	$2, %r15d
	jne	.L1348
	movq	%rax, %rdx
	subq	%r14, %rdx
	js	.L1378
.L1355:
	salq	$6, %rax
	addq	$2, %r14
	leaq	0(%r13,%rax), %r15
	movq	(%r15), %r15
	leaq	(%r12,%rax), %r15
	movq	(%r15), %r15
	leaq	0(%rbp,%rax), %r15
	movq	(%r15), %r15
	leaq	(%rbx,%rax), %r15
	movq	(%r15), %r15
	leaq	(%r11,%rax), %r15
	movq	(%r15), %r15
	leaq	(%r10,%rax), %r15
	movq	(%r15), %r15
	leaq	(%r9,%rax), %r15
	movq	(%r15), %r15
	leaq	(%r8,%rax), %r15
	movq	(%r15), %r15
	leaq	(%rdi,%rax), %r15
	addq	%rcx, %rax
	movq	(%r15), %r15
	movq	(%rax), %rax
	movq	%rdx, %rax
	jmp	.L1348
	.p2align 4,,10
	.p2align 3
.L1347:
	salq	$6, %rax
	addq	$2, %r14
	leaq	0(%r13,%rax), %r15
	movq	(%r15), %r15
	leaq	(%r12,%rax), %r15
	movq	(%r15), %r15
	leaq	0(%rbp,%rax), %r15
	movq	(%r15), %r15
	leaq	(%rbx,%rax), %r15
	movq	(%r15), %r15
	leaq	(%r11,%rax), %r15
	movq	(%r15), %r15
	leaq	(%r10,%rax), %r15
	movq	(%r15), %r15
	leaq	(%r9,%rax), %r15
	movq	(%r15), %r15
	leaq	(%r8,%rax), %r15
	movq	(%r15), %r15
	leaq	(%rdi,%rax), %r15
	addq	%rcx, %rax
	movq	(%r15), %r15
	movq	(%rax), %rax
	cmpq	%r14, -32(%rsp)
	je	.L1346
	movq	%rdx, %rax
	subq	%r14, %rax
	js	.L1379
.L1358:
	salq	$6, %rdx
	addq	$2, %r14
	leaq	0(%r13,%rdx), %r15
	movq	(%r15), %r15
	leaq	(%r12,%rdx), %r15
	movq	(%r15), %r15
	leaq	0(%rbp,%rdx), %r15
	movq	(%r15), %r15
	leaq	(%rbx,%rdx), %r15
	movq	(%r15), %r15
	leaq	(%r11,%rdx), %r15
	movq	(%r15), %r15
	leaq	(%r10,%rdx), %r15
	movq	(%r15), %r15
	leaq	(%r9,%rdx), %r15
	movq	(%r15), %r15
	leaq	(%r8,%rdx), %r15
	movq	(%r15), %r15
	leaq	(%rdi,%rdx), %r15
	addq	%rcx, %rdx
	movq	(%r15), %r15
	movq	(%rdx), %rdx
.L1348:
	movq	%rax, %rdx
	subq	%r14, %rdx
	jns	.L1347
	addq	%rsi, %rdx
	jns	.L1347
	addq	%rsi, %rdx
	jmp	.L1347
	.p2align 4,,10
	.p2align 3
.L1379:
	addq	%rsi, %rax
	jns	.L1358
	addq	%rsi, %rax
	jmp	.L1358
	.p2align 4,,10
	.p2align 3
.L1352:
	movq	%rax, %rdx
	.p2align 4,,10
	.p2align 3
.L1346:
#APP
# 249 "mem.cc" 1
	# random loop end (n_chains = $10, payload = $0)
# 0 "" 2
#NO_APP
	addq	$1, -24(%rsp)
	movq	-24(%rsp), %r14
	cmpq	%r14, -8(%rsp)
	jne	.L1349
	salq	$6, %rdx
	popq	%rbx
	.cfi_remember_state
	.cfi_def_cfa_offset 48
	popq	%rbp
	.cfi_def_cfa_offset 40
	popq	%r12
	.cfi_def_cfa_offset 32
	popq	%r13
	.cfi_def_cfa_offset 24
	popq	%r14
	.cfi_def_cfa_offset 16
	popq	%r15
	.cfi_def_cfa_offset 8
	leaq	(%rcx,%rdx), %rax
	ret
	.p2align 4,,10
	.p2align 3
.L1378:
	.cfi_restore_state
	addq	%rsi, %rdx
	jns	.L1355
	addq	%rsi, %rdx
	jmp	.L1355
	.p2align 4,,10
	.p2align 3
.L1350:
	movl	$1, %r15d
	xorl	%edx, %edx
	jmp	.L1343
.L1377:
	xorl	%edx, %edx
	popq	%rbx
	.cfi_def_cfa_offset 48
	popq	%rbp
	.cfi_def_cfa_offset 40
	popq	%r12
	.cfi_def_cfa_offset 32
	popq	%r13
	.cfi_def_cfa_offset 24
	popq	%r14
	.cfi_def_cfa_offset 16
	popq	%r15
	.cfi_def_cfa_offset 8
	leaq	(%rcx,%rdx), %rax
	ret
	.cfi_endproc
.LFE225:
	.size	_Z13access_randomILi10ELi0EEP6recordPS1_ll, .-_Z13access_randomILi10ELi0EEP6recordPS1_ll
	.section	.text.unlikely._Z13access_randomILi10ELi0EEP6recordPS1_ll,"axG",@progbits,_Z13access_randomILi10ELi0EEP6recordPS1_ll,comdat
.LCOLDE69:
	.section	.text._Z13access_randomILi10ELi0EEP6recordPS1_ll,"axG",@progbits,_Z13access_randomILi10ELi0EEP6recordPS1_ll,comdat
.LHOTE69:
	.section	.text.unlikely._Z13access_randomILi11ELi1EEP6recordPS1_ll,"axG",@progbits,_Z13access_randomILi11ELi1EEP6recordPS1_ll,comdat
.LCOLDB70:
	.section	.text._Z13access_randomILi11ELi1EEP6recordPS1_ll,"axG",@progbits,_Z13access_randomILi11ELi1EEP6recordPS1_ll,comdat
.LHOTB70:
	.p2align 4,,15
	.weak	_Z13access_randomILi11ELi1EEP6recordPS1_ll
	.type	_Z13access_randomILi11ELi1EEP6recordPS1_ll, @function
_Z13access_randomILi11ELi1EEP6recordPS1_ll:
.LFB228:
	.cfi_startproc
	leaq	8(%rsp), %r10
	.cfi_def_cfa 10, 0
	andq	$-32, %rsp
	movq	%rdi, %rax
	pushq	-8(%r10)
	pushq	%rbp
	.cfi_escape 0x10,0x6,0x2,0x76,0
	movq	%rsp, %rbp
	pushq	%r15
	pushq	%r14
	pushq	%r13
	pushq	%r12
	pushq	%r10
	.cfi_escape 0xf,0x3,0x76,0x58,0x6
	.cfi_escape 0x10,0xf,0x2,0x76,0x78
	.cfi_escape 0x10,0xe,0x2,0x76,0x70
	.cfi_escape 0x10,0xd,0x2,0x76,0x68
	.cfi_escape 0x10,0xc,0x2,0x76,0x60
	pushq	%rbx
	.cfi_escape 0x10,0x3,0x2,0x76,0x50
	movq	%rdx, -112(%rbp)
	testq	%rdx, %rdx
	jle	.L1396
	leaq	-1(%rsi), %rdx
	movq	80(%rdi), %rdi
	movq	%rsi, -56(%rbp)
	movq	%rdx, %rcx
	movq	72(%rax), %r15
	movq	$0, -96(%rbp)
	shrq	$63, %rcx
	movq	(%rax), %r14
	addq	%rcx, %rdx
	movq	8(%rax), %r13
	sarq	%rdx
	movq	%rdi, -64(%rbp)
	movq	16(%rax), %r12
	movq	%rdx, -104(%rbp)
	movq	24(%rax), %rbx
	movq	32(%rax), %rdi
	movq	40(%rax), %r11
	movq	48(%rax), %r10
	movq	56(%rax), %r9
	movq	64(%rax), %r8
	leaq	(%rdx,%rdx), %rax
	leaq	1(%rsi,%rsi), %rdx
	movq	%rax, -80(%rbp)
	movq	%r15, %rsi
	movq	%rdx, -88(%rbp)
	.p2align 4,,10
	.p2align 3
.L1389:
#APP
# 207 "mem.cc" 1
	# random loop begin (n_chains = $11, payload = $1)
# 0 "" 2
#NO_APP
	xorl	%ecx, %ecx
	cmpq	$0, -104(%rbp)
	jle	.L1390
	xorl	%eax, %eax
	movq	%rsi, -72(%rbp)
	jmp	.L1385
	.p2align 4,,10
	.p2align 3
.L1391:
	movq	%rdx, %rax
.L1385:
	leaq	1(%rcx,%rax), %rdx
	movq	%rdx, %r15
	subq	-56(%rbp), %r15
	js	.L1384
	movq	%r15, %rsi
	subq	-56(%rbp), %rsi
	movq	%rsi, %rdx
	cmovs	%r15, %rdx
.L1384:
	salq	$6, %rax
	addq	$2, %rcx
	leaq	(%r14,%rax), %r15
	leaq	0(%r13,%rax), %rsi
	vmovdqa	(%r15), %ymm0
	vmovdqa	32(%r15), %ymm0
	leaq	(%r12,%rax), %r15
	vmovdqa	(%rsi), %ymm0
	vmovdqa	32(%rsi), %ymm0
	leaq	(%rbx,%rax), %rsi
	vmovdqa	(%r15), %ymm0
	vmovdqa	32(%r15), %ymm0
	leaq	(%rdi,%rax), %r15
	vmovdqa	(%rsi), %ymm0
	vmovdqa	32(%rsi), %ymm0
	leaq	(%r11,%rax), %rsi
	vmovdqa	(%r15), %ymm0
	vmovdqa	32(%r15), %ymm0
	leaq	(%r10,%rax), %r15
	vmovdqa	(%rsi), %ymm0
	vmovdqa	32(%rsi), %ymm0
	leaq	(%r9,%rax), %rsi
	vmovdqa	(%r15), %ymm0
	vmovdqa	32(%r15), %ymm0
	leaq	(%r8,%rax), %r15
	vmovdqa	(%rsi), %ymm0
	vmovdqa	32(%rsi), %ymm0
	movq	-72(%rbp), %rsi
	vmovdqa	(%r15), %ymm0
	vmovdqa	32(%r15), %ymm0
	leaq	(%rsi,%rax), %r15
	addq	-64(%rbp), %rax
	vmovdqa	(%r15), %ymm0
	vmovdqa	32(%r15), %ymm0
	vmovdqa	(%rax), %ymm0
	vmovdqa	32(%rax), %ymm0
	cmpq	-80(%rbp), %rcx
	jne	.L1391
	movq	-104(%rbp), %r15
	movq	%rdx, %rcx
	salq	$6, %rcx
	leaq	1(%r15), %r15
.L1383:
	movq	-56(%rbp), %rax
	subq	%rdx, %rax
	leaq	(%r14,%rcx), %rdx
	vmovdqa	(%rdx), %ymm0
	vmovdqa	32(%rdx), %ymm0
	leaq	0(%r13,%rcx), %rdx
	vmovdqa	(%rdx), %ymm0
	vmovdqa	32(%rdx), %ymm0
	leaq	(%r12,%rcx), %rdx
	vmovdqa	(%rdx), %ymm0
	vmovdqa	32(%rdx), %ymm0
	leaq	(%rbx,%rcx), %rdx
	vmovdqa	(%rdx), %ymm0
	vmovdqa	32(%rdx), %ymm0
	leaq	(%rdi,%rcx), %rdx
	vmovdqa	(%rdx), %ymm0
	vmovdqa	32(%rdx), %ymm0
	leaq	(%r11,%rcx), %rdx
	vmovdqa	(%rdx), %ymm0
	vmovdqa	32(%rdx), %ymm0
	leaq	(%r10,%rcx), %rdx
	vmovdqa	(%rdx), %ymm0
	vmovdqa	32(%rdx), %ymm0
	leaq	(%r9,%rcx), %rdx
	vmovdqa	(%rdx), %ymm0
	vmovdqa	32(%rdx), %ymm0
	leaq	(%r8,%rcx), %rdx
	vmovdqa	(%rdx), %ymm0
	vmovdqa	32(%rdx), %ymm0
	leaq	(%rsi,%rcx), %rdx
	addq	-64(%rbp), %rcx
	vmovdqa	(%rdx), %ymm0
	vmovdqa	32(%rdx), %ymm0
	vmovdqa	(%rcx), %ymm0
	vmovdqa	32(%rcx), %ymm0
	cmpq	%r15, -56(%rbp)
	jle	.L1392
	leaq	1(%r15,%r15), %rdx
	jmp	.L1388
	.p2align 4,,10
	.p2align 3
.L1387:
	salq	$6, %rax
	addq	$2, %rdx
	leaq	(%r14,%rax), %r15
	vmovdqa	(%r15), %ymm0
	vmovdqa	32(%r15), %ymm0
	leaq	0(%r13,%rax), %r15
	vmovdqa	(%r15), %ymm0
	vmovdqa	32(%r15), %ymm0
	leaq	(%r12,%rax), %r15
	vmovdqa	(%r15), %ymm0
	vmovdqa	32(%r15), %ymm0
	leaq	(%rbx,%rax), %r15
	vmovdqa	(%r15), %ymm0
	vmovdqa	32(%r15), %ymm0
	leaq	(%rdi,%rax), %r15
	vmovdqa	(%r15), %ymm0
	vmovdqa	32(%r15), %ymm0
	leaq	(%r11,%rax), %r15
	vmovdqa	(%r15), %ymm0
	vmovdqa	32(%r15), %ymm0
	leaq	(%r10,%rax), %r15
	vmovdqa	(%r15), %ymm0
	vmovdqa	32(%r15), %ymm0
	leaq	(%r9,%rax), %r15
	vmovdqa	(%r15), %ymm0
	vmovdqa	32(%r15), %ymm0
	leaq	(%r8,%rax), %r15
	vmovdqa	(%r15), %ymm0
	vmovdqa	32(%r15), %ymm0
	leaq	(%rsi,%rax), %r15
	addq	-64(%rbp), %rax
	vmovdqa	(%r15), %ymm0
	vmovdqa	32(%r15), %ymm0
	vmovdqa	(%rax), %ymm0
	vmovdqa	32(%rax), %ymm0
	cmpq	%rdx, -88(%rbp)
	je	.L1386
	movq	%rcx, %rax
.L1388:
	movq	%rax, %rcx
	subq	%rdx, %rcx
	jns	.L1387
	movq	-56(%rbp), %r15
	addq	%r15, %rcx
	jns	.L1387
	addq	%r15, %rcx
	jmp	.L1387
.L1392:
	movq	%rax, %rcx
	.p2align 4,,10
	.p2align 3
.L1386:
#APP
# 249 "mem.cc" 1
	# random loop end (n_chains = $11, payload = $1)
# 0 "" 2
#NO_APP
	addq	$1, -96(%rbp)
	movq	-96(%rbp), %r15
	cmpq	%r15, -112(%rbp)
	jne	.L1389
	salq	$6, %rcx
	vzeroupper
	movq	-64(%rbp), %rax
.L1382:
	addq	%rcx, %rax
	popq	%rbx
	popq	%rdx
	.cfi_remember_state
	.cfi_def_cfa 10, 0
	popq	%r12
	popq	%r13
	popq	%r14
	popq	%r15
	popq	%rbp
	leaq	-8(%rdx), %rsp
	.cfi_def_cfa 7, 8
	ret
.L1390:
	.cfi_restore_state
	movl	$1, %r15d
	xorl	%edx, %edx
	jmp	.L1383
.L1396:
	movq	80(%rdi), %rax
	xorl	%ecx, %ecx
	movq	%rax, -64(%rbp)
	jmp	.L1382
	.cfi_endproc
.LFE228:
	.size	_Z13access_randomILi11ELi1EEP6recordPS1_ll, .-_Z13access_randomILi11ELi1EEP6recordPS1_ll
	.section	.text.unlikely._Z13access_randomILi11ELi1EEP6recordPS1_ll,"axG",@progbits,_Z13access_randomILi11ELi1EEP6recordPS1_ll,comdat
.LCOLDE70:
	.section	.text._Z13access_randomILi11ELi1EEP6recordPS1_ll,"axG",@progbits,_Z13access_randomILi11ELi1EEP6recordPS1_ll,comdat
.LHOTE70:
	.section	.text.unlikely._Z13access_randomILi11ELi0EEP6recordPS1_ll,"axG",@progbits,_Z13access_randomILi11ELi0EEP6recordPS1_ll,comdat
.LCOLDB71:
	.section	.text._Z13access_randomILi11ELi0EEP6recordPS1_ll,"axG",@progbits,_Z13access_randomILi11ELi0EEP6recordPS1_ll,comdat
.LHOTB71:
	.p2align 4,,15
	.weak	_Z13access_randomILi11ELi0EEP6recordPS1_ll
	.type	_Z13access_randomILi11ELi0EEP6recordPS1_ll, @function
_Z13access_randomILi11ELi0EEP6recordPS1_ll:
.LFB231:
	.cfi_startproc
	pushq	%r15
	.cfi_def_cfa_offset 16
	.cfi_offset 15, -16
	movq	%rdi, %rax
	pushq	%r14
	.cfi_def_cfa_offset 24
	.cfi_offset 14, -24
	pushq	%r13
	.cfi_def_cfa_offset 32
	.cfi_offset 13, -32
	pushq	%r12
	.cfi_def_cfa_offset 40
	.cfi_offset 12, -40
	pushq	%rbp
	.cfi_def_cfa_offset 48
	.cfi_offset 6, -48
	pushq	%rbx
	.cfi_def_cfa_offset 56
	.cfi_offset 3, -56
	movq	%rdx, -8(%rsp)
	testq	%rdx, %rdx
	jle	.L1434
	movq	80(%rdi), %rbx
	leaq	-1(%rsi), %r14
	movq	$0, -24(%rsp)
	movq	(%rdi), %r13
	leaq	1(%rsi,%rsi), %r15
	movq	%r14, %rdx
	shrq	$63, %rdx
	movq	8(%rdi), %r12
	movq	%r15, -32(%rsp)
	movq	16(%rdi), %rbp
	addq	%rdx, %r14
	movq	%rbx, -48(%rsp)
	movq	40(%rax), %r11
	sarq	%r14
	movq	24(%rdi), %rbx
	movq	%r14, -16(%rsp)
	addq	%r14, %r14
	movq	32(%rdi), %rdi
	movq	%r14, -40(%rsp)
	movq	48(%rax), %r10
	movq	56(%rax), %r9
	movq	64(%rax), %r8
	movq	72(%rax), %rcx
	.p2align 4,,10
	.p2align 3
.L1406:
#APP
# 207 "mem.cc" 1
	# random loop begin (n_chains = $11, payload = $0)
# 0 "" 2
#NO_APP
	xorl	%r14d, %r14d
	cmpq	$0, -16(%rsp)
	jle	.L1407
	xorl	%eax, %eax
	testb	$2, -40(%rsp)
	jne	.L1402
	movl	$1, %eax
	movq	%rax, %r14
	subq	%rsi, %r14
	js	.L1417
	movq	%r14, %rax
	subq	%rsi, %rax
	cmovs	%r14, %rax
.L1417:
	movq	0(%r13), %rdx
	movl	$2, %r14d
	movq	(%r12), %rdx
	movq	0(%rbp), %rdx
	movq	(%rbx), %rdx
	movq	(%rdi), %rdx
	movq	(%r11), %rdx
	movq	(%r10), %rdx
	movq	(%r9), %rdx
	movq	(%r8), %rdx
	movq	(%rcx), %rdx
	movq	-48(%rsp), %rdx
	movq	(%rdx), %rdx
	jmp	.L1402
	.p2align 4,,10
	.p2align 3
.L1408:
	leaq	1(%rdx,%r14), %rax
	movq	%rax, %r15
	subq	%rsi, %r15
	js	.L1420
	movq	%r15, %rax
	subq	%rsi, %rax
	cmovs	%r15, %rax
.L1420:
	salq	$6, %rdx
	addq	$2, %r14
	leaq	0(%r13,%rdx), %r15
	movq	(%r15), %r15
	leaq	(%r12,%rdx), %r15
	movq	(%r15), %r15
	leaq	0(%rbp,%rdx), %r15
	movq	(%r15), %r15
	leaq	(%rbx,%rdx), %r15
	movq	(%r15), %r15
	leaq	(%rdi,%rdx), %r15
	movq	(%r15), %r15
	leaq	(%r11,%rdx), %r15
	movq	(%r15), %r15
	leaq	(%r10,%rdx), %r15
	movq	(%r15), %r15
	leaq	(%r9,%rdx), %r15
	movq	(%r15), %r15
	leaq	(%r8,%rdx), %r15
	movq	(%r15), %r15
	leaq	(%rcx,%rdx), %r15
	addq	-48(%rsp), %rdx
	movq	(%r15), %r15
	movq	(%rdx), %rdx
.L1402:
	leaq	1(%r14,%rax), %rdx
	movq	%rdx, %r15
	subq	%rsi, %r15
	js	.L1401
	movq	%r15, %rdx
	subq	%rsi, %rdx
	cmovs	%r15, %rdx
.L1401:
	salq	$6, %rax
	addq	$2, %r14
	leaq	0(%r13,%rax), %r15
	movq	(%r15), %r15
	leaq	(%r12,%rax), %r15
	movq	(%r15), %r15
	leaq	0(%rbp,%rax), %r15
	movq	(%r15), %r15
	leaq	(%rbx,%rax), %r15
	movq	(%r15), %r15
	leaq	(%rdi,%rax), %r15
	movq	(%r15), %r15
	leaq	(%r11,%rax), %r15
	movq	(%r15), %r15
	leaq	(%r10,%rax), %r15
	movq	(%r15), %r15
	leaq	(%r9,%rax), %r15
	movq	(%r15), %r15
	leaq	(%r8,%rax), %r15
	movq	(%r15), %r15
	leaq	(%rcx,%rax), %r15
	addq	-48(%rsp), %rax
	movq	(%r15), %r15
	movq	(%rax), %rax
	cmpq	-40(%rsp), %r14
	jne	.L1408
	movq	-16(%rsp), %r14
	leaq	1(%r14), %r15
	movq	%rdx, %r14
	salq	$6, %r14
.L1400:
	movq	%rsi, %rax
	subq	%rdx, %rax
	leaq	0(%r13,%r14), %rdx
	movq	(%rdx), %rdx
	leaq	(%r12,%r14), %rdx
	movq	(%rdx), %rdx
	leaq	0(%rbp,%r14), %rdx
	movq	(%rdx), %rdx
	leaq	(%rbx,%r14), %rdx
	movq	(%rdx), %rdx
	leaq	(%rdi,%r14), %rdx
	movq	(%rdx), %rdx
	leaq	(%r11,%r14), %rdx
	movq	(%rdx), %rdx
	leaq	(%r10,%r14), %rdx
	movq	(%rdx), %rdx
	leaq	(%r9,%r14), %rdx
	movq	(%rdx), %rdx
	leaq	(%r8,%r14), %rdx
	movq	(%rdx), %rdx
	leaq	(%rcx,%r14), %rdx
	addq	-48(%rsp), %r14
	movq	(%rdx), %rdx
	movq	(%r14), %rdx
	cmpq	%r15, %rsi
	jle	.L1409
	leaq	1(%r15,%r15), %r14
	movq	-32(%rsp), %r15
	subq	%r14, %r15
	andl	$2, %r15d
	jne	.L1405
	movq	%rax, %r15
	subq	%r14, %r15
	js	.L1435
.L1412:
	salq	$6, %rax
	addq	$2, %r14
	leaq	0(%r13,%rax), %rdx
	movq	(%rdx), %rdx
	leaq	(%r12,%rax), %rdx
	movq	(%rdx), %rdx
	leaq	0(%rbp,%rax), %rdx
	movq	(%rdx), %rdx
	leaq	(%rbx,%rax), %rdx
	movq	(%rdx), %rdx
	leaq	(%rdi,%rax), %rdx
	movq	(%rdx), %rdx
	leaq	(%r11,%rax), %rdx
	movq	(%rdx), %rdx
	leaq	(%r10,%rax), %rdx
	movq	(%rdx), %rdx
	leaq	(%r9,%rax), %rdx
	movq	(%rdx), %rdx
	leaq	(%r8,%rax), %rdx
	movq	(%rdx), %rdx
	leaq	(%rcx,%rax), %rdx
	addq	-48(%rsp), %rax
	movq	(%rdx), %rdx
	movq	(%rax), %rax
	movq	%r15, %rax
	jmp	.L1405
	.p2align 4,,10
	.p2align 3
.L1404:
	salq	$6, %rax
	addq	$2, %r14
	leaq	0(%r13,%rax), %r15
	movq	(%r15), %r15
	leaq	(%r12,%rax), %r15
	movq	(%r15), %r15
	leaq	0(%rbp,%rax), %r15
	movq	(%r15), %r15
	leaq	(%rbx,%rax), %r15
	movq	(%r15), %r15
	leaq	(%rdi,%rax), %r15
	movq	(%r15), %r15
	leaq	(%r11,%rax), %r15
	movq	(%r15), %r15
	leaq	(%r10,%rax), %r15
	movq	(%r15), %r15
	leaq	(%r9,%rax), %r15
	movq	(%r15), %r15
	leaq	(%r8,%rax), %r15
	movq	(%r15), %r15
	leaq	(%rcx,%rax), %r15
	addq	-48(%rsp), %rax
	movq	(%r15), %r15
	movq	(%rax), %rax
	cmpq	%r14, -32(%rsp)
	je	.L1403
	movq	%rdx, %rax
	subq	%r14, %rax
	js	.L1436
.L1415:
	salq	$6, %rdx
	addq	$2, %r14
	leaq	0(%r13,%rdx), %r15
	movq	(%r15), %r15
	leaq	(%r12,%rdx), %r15
	movq	(%r15), %r15
	leaq	0(%rbp,%rdx), %r15
	movq	(%r15), %r15
	leaq	(%rbx,%rdx), %r15
	movq	(%r15), %r15
	leaq	(%rdi,%rdx), %r15
	movq	(%r15), %r15
	leaq	(%r11,%rdx), %r15
	movq	(%r15), %r15
	leaq	(%r10,%rdx), %r15
	movq	(%r15), %r15
	leaq	(%r9,%rdx), %r15
	movq	(%r15), %r15
	leaq	(%r8,%rdx), %r15
	movq	(%r15), %r15
	leaq	(%rcx,%rdx), %r15
	addq	-48(%rsp), %rdx
	movq	(%r15), %r15
	movq	(%rdx), %rdx
.L1405:
	movq	%rax, %rdx
	subq	%r14, %rdx
	jns	.L1404
	addq	%rsi, %rdx
	jns	.L1404
	addq	%rsi, %rdx
	jmp	.L1404
	.p2align 4,,10
	.p2align 3
.L1436:
	addq	%rsi, %rax
	jns	.L1415
	addq	%rsi, %rax
	jmp	.L1415
	.p2align 4,,10
	.p2align 3
.L1409:
	movq	%rax, %rdx
	.p2align 4,,10
	.p2align 3
.L1403:
#APP
# 249 "mem.cc" 1
	# random loop end (n_chains = $11, payload = $0)
# 0 "" 2
#NO_APP
	addq	$1, -24(%rsp)
	movq	-24(%rsp), %r14
	cmpq	%r14, -8(%rsp)
	jne	.L1406
	movq	-48(%rsp), %rax
	salq	$6, %rdx
	popq	%rbx
	.cfi_remember_state
	.cfi_def_cfa_offset 48
	popq	%rbp
	.cfi_def_cfa_offset 40
	popq	%r12
	.cfi_def_cfa_offset 32
	addq	%rdx, %rax
	popq	%r13
	.cfi_def_cfa_offset 24
	popq	%r14
	.cfi_def_cfa_offset 16
	popq	%r15
	.cfi_def_cfa_offset 8
	ret
	.p2align 4,,10
	.p2align 3
.L1435:
	.cfi_restore_state
	addq	%rsi, %r15
	jns	.L1412
	addq	%rsi, %r15
	jmp	.L1412
	.p2align 4,,10
	.p2align 3
.L1407:
	movl	$1, %r15d
	xorl	%edx, %edx
	jmp	.L1400
.L1434:
	movq	80(%rdi), %rax
	xorl	%edx, %edx
	movq	%rax, -48(%rsp)
	popq	%rbx
	.cfi_def_cfa_offset 48
	addq	%rdx, %rax
	popq	%rbp
	.cfi_def_cfa_offset 40
	popq	%r12
	.cfi_def_cfa_offset 32
	popq	%r13
	.cfi_def_cfa_offset 24
	popq	%r14
	.cfi_def_cfa_offset 16
	popq	%r15
	.cfi_def_cfa_offset 8
	ret
	.cfi_endproc
.LFE231:
	.size	_Z13access_randomILi11ELi0EEP6recordPS1_ll, .-_Z13access_randomILi11ELi0EEP6recordPS1_ll
	.section	.text.unlikely._Z13access_randomILi11ELi0EEP6recordPS1_ll,"axG",@progbits,_Z13access_randomILi11ELi0EEP6recordPS1_ll,comdat
.LCOLDE71:
	.section	.text._Z13access_randomILi11ELi0EEP6recordPS1_ll,"axG",@progbits,_Z13access_randomILi11ELi0EEP6recordPS1_ll,comdat
.LHOTE71:
	.section	.text.unlikely._Z13access_randomILi12ELi1EEP6recordPS1_ll,"axG",@progbits,_Z13access_randomILi12ELi1EEP6recordPS1_ll,comdat
.LCOLDB72:
	.section	.text._Z13access_randomILi12ELi1EEP6recordPS1_ll,"axG",@progbits,_Z13access_randomILi12ELi1EEP6recordPS1_ll,comdat
.LHOTB72:
	.p2align 4,,15
	.weak	_Z13access_randomILi12ELi1EEP6recordPS1_ll
	.type	_Z13access_randomILi12ELi1EEP6recordPS1_ll, @function
_Z13access_randomILi12ELi1EEP6recordPS1_ll:
.LFB234:
	.cfi_startproc
	leaq	8(%rsp), %r10
	.cfi_def_cfa 10, 0
	andq	$-32, %rsp
	movq	%rdi, %rax
	pushq	-8(%r10)
	pushq	%rbp
	.cfi_escape 0x10,0x6,0x2,0x76,0
	movq	%rsp, %rbp
	pushq	%r15
	pushq	%r14
	pushq	%r13
	pushq	%r12
	pushq	%r10
	.cfi_escape 0xf,0x3,0x76,0x58,0x6
	.cfi_escape 0x10,0xf,0x2,0x76,0x78
	.cfi_escape 0x10,0xe,0x2,0x76,0x70
	.cfi_escape 0x10,0xd,0x2,0x76,0x68
	.cfi_escape 0x10,0xc,0x2,0x76,0x60
	pushq	%rbx
	.cfi_escape 0x10,0x3,0x2,0x76,0x50
	movq	%rdx, -120(%rbp)
	testq	%rdx, %rdx
	jle	.L1453
	movq	88(%rdi), %rdi
	leaq	-1(%rsi), %rdx
	movq	%rsi, -56(%rbp)
	movq	%rdx, %rcx
	movq	72(%rax), %r15
	movq	$0, -104(%rbp)
	shrq	$63, %rcx
	movq	(%rax), %r14
	movq	8(%rax), %r13
	addq	%rcx, %rdx
	movq	%rdi, -64(%rbp)
	movq	16(%rax), %r12
	leaq	1(%rsi,%rsi), %rcx
	sarq	%rdx
	movq	24(%rax), %rbx
	movq	%rdx, -112(%rbp)
	leaq	(%rdx,%rdx), %rdx
	movq	32(%rax), %rdi
	movq	%r15, -72(%rbp)
	movq	40(%rax), %r11
	movq	%rdx, -88(%rbp)
	movq	48(%rax), %r10
	movq	%rcx, -96(%rbp)
	movq	56(%rax), %r9
	movq	64(%rax), %r8
	movq	80(%rax), %rax
	movq	%rax, %rsi
	.p2align 4,,10
	.p2align 3
.L1446:
#APP
# 207 "mem.cc" 1
	# random loop begin (n_chains = $12, payload = $1)
# 0 "" 2
#NO_APP
	xorl	%ecx, %ecx
	cmpq	$0, -112(%rbp)
	jle	.L1447
	xorl	%eax, %eax
	movq	%rsi, -80(%rbp)
	jmp	.L1442
	.p2align 4,,10
	.p2align 3
.L1448:
	movq	%rdx, %rax
.L1442:
	leaq	1(%rcx,%rax), %rdx
	movq	%rdx, %r15
	subq	-56(%rbp), %r15
	js	.L1441
	movq	%r15, %rsi
	subq	-56(%rbp), %rsi
	movq	%rsi, %rdx
	cmovs	%r15, %rdx
.L1441:
	salq	$6, %rax
	addq	$2, %rcx
	leaq	(%r14,%rax), %r15
	leaq	0(%r13,%rax), %rsi
	vmovdqa	(%r15), %ymm0
	vmovdqa	32(%r15), %ymm0
	leaq	(%r12,%rax), %r15
	vmovdqa	(%rsi), %ymm0
	vmovdqa	32(%rsi), %ymm0
	leaq	(%rbx,%rax), %rsi
	vmovdqa	(%r15), %ymm0
	vmovdqa	32(%r15), %ymm0
	leaq	(%rdi,%rax), %r15
	vmovdqa	(%rsi), %ymm0
	vmovdqa	32(%rsi), %ymm0
	leaq	(%r11,%rax), %rsi
	vmovdqa	(%r15), %ymm0
	vmovdqa	32(%r15), %ymm0
	leaq	(%r10,%rax), %r15
	vmovdqa	(%rsi), %ymm0
	vmovdqa	32(%rsi), %ymm0
	leaq	(%r9,%rax), %rsi
	vmovdqa	(%r15), %ymm0
	vmovdqa	32(%r15), %ymm0
	leaq	(%r8,%rax), %r15
	vmovdqa	(%rsi), %ymm0
	vmovdqa	32(%rsi), %ymm0
	movq	-72(%rbp), %rsi
	vmovdqa	(%r15), %ymm0
	vmovdqa	32(%r15), %ymm0
	leaq	(%rsi,%rax), %r15
	movq	-80(%rbp), %rsi
	vmovdqa	(%r15), %ymm0
	vmovdqa	32(%r15), %ymm0
	leaq	(%rsi,%rax), %r15
	addq	-64(%rbp), %rax
	vmovdqa	(%r15), %ymm0
	vmovdqa	32(%r15), %ymm0
	vmovdqa	(%rax), %ymm0
	vmovdqa	32(%rax), %ymm0
	cmpq	-88(%rbp), %rcx
	jne	.L1448
	movq	-112(%rbp), %r15
	movq	%rdx, %rcx
	salq	$6, %rcx
	leaq	1(%r15), %r15
.L1440:
	movq	-56(%rbp), %rax
	subq	%rdx, %rax
	leaq	(%r14,%rcx), %rdx
	vmovdqa	(%rdx), %ymm0
	vmovdqa	32(%rdx), %ymm0
	leaq	0(%r13,%rcx), %rdx
	vmovdqa	(%rdx), %ymm0
	vmovdqa	32(%rdx), %ymm0
	leaq	(%r12,%rcx), %rdx
	vmovdqa	(%rdx), %ymm0
	vmovdqa	32(%rdx), %ymm0
	leaq	(%rbx,%rcx), %rdx
	vmovdqa	(%rdx), %ymm0
	vmovdqa	32(%rdx), %ymm0
	leaq	(%rdi,%rcx), %rdx
	vmovdqa	(%rdx), %ymm0
	vmovdqa	32(%rdx), %ymm0
	leaq	(%r11,%rcx), %rdx
	vmovdqa	(%rdx), %ymm0
	vmovdqa	32(%rdx), %ymm0
	leaq	(%r10,%rcx), %rdx
	vmovdqa	(%rdx), %ymm0
	vmovdqa	32(%rdx), %ymm0
	leaq	(%r9,%rcx), %rdx
	vmovdqa	(%rdx), %ymm0
	vmovdqa	32(%rdx), %ymm0
	leaq	(%r8,%rcx), %rdx
	vmovdqa	(%rdx), %ymm0
	vmovdqa	32(%rdx), %ymm0
	movq	-72(%rbp), %rdx
	addq	%rcx, %rdx
	vmovdqa	(%rdx), %ymm0
	vmovdqa	32(%rdx), %ymm0
	leaq	(%rsi,%rcx), %rdx
	addq	-64(%rbp), %rcx
	vmovdqa	(%rdx), %ymm0
	vmovdqa	32(%rdx), %ymm0
	vmovdqa	(%rcx), %ymm0
	vmovdqa	32(%rcx), %ymm0
	cmpq	%r15, -56(%rbp)
	jle	.L1449
	leaq	1(%r15,%r15), %rdx
	jmp	.L1445
	.p2align 4,,10
	.p2align 3
.L1444:
	salq	$6, %rax
	addq	$2, %rdx
	leaq	(%r14,%rax), %r15
	vmovdqa	(%r15), %ymm0
	vmovdqa	32(%r15), %ymm0
	leaq	0(%r13,%rax), %r15
	vmovdqa	(%r15), %ymm0
	vmovdqa	32(%r15), %ymm0
	leaq	(%r12,%rax), %r15
	vmovdqa	(%r15), %ymm0
	vmovdqa	32(%r15), %ymm0
	leaq	(%rbx,%rax), %r15
	vmovdqa	(%r15), %ymm0
	vmovdqa	32(%r15), %ymm0
	leaq	(%rdi,%rax), %r15
	vmovdqa	(%r15), %ymm0
	vmovdqa	32(%r15), %ymm0
	leaq	(%r11,%rax), %r15
	vmovdqa	(%r15), %ymm0
	vmovdqa	32(%r15), %ymm0
	leaq	(%r10,%rax), %r15
	vmovdqa	(%r15), %ymm0
	vmovdqa	32(%r15), %ymm0
	leaq	(%r9,%rax), %r15
	vmovdqa	(%r15), %ymm0
	vmovdqa	32(%r15), %ymm0
	leaq	(%r8,%rax), %r15
	vmovdqa	(%r15), %ymm0
	vmovdqa	32(%r15), %ymm0
	movq	-72(%rbp), %r15
	addq	%rax, %r15
	vmovdqa	(%r15), %ymm0
	vmovdqa	32(%r15), %ymm0
	leaq	(%rsi,%rax), %r15
	addq	-64(%rbp), %rax
	vmovdqa	(%r15), %ymm0
	vmovdqa	32(%r15), %ymm0
	vmovdqa	(%rax), %ymm0
	vmovdqa	32(%rax), %ymm0
	cmpq	%rdx, -96(%rbp)
	je	.L1443
	movq	%rcx, %rax
.L1445:
	movq	%rax, %rcx
	subq	%rdx, %rcx
	jns	.L1444
	movq	-56(%rbp), %r15
	addq	%r15, %rcx
	jns	.L1444
	addq	%r15, %rcx
	jmp	.L1444
.L1449:
	movq	%rax, %rcx
	.p2align 4,,10
	.p2align 3
.L1443:
#APP
# 249 "mem.cc" 1
	# random loop end (n_chains = $12, payload = $1)
# 0 "" 2
#NO_APP
	addq	$1, -104(%rbp)
	movq	-104(%rbp), %r15
	cmpq	%r15, -120(%rbp)
	jne	.L1446
	salq	$6, %rcx
	vzeroupper
	movq	-64(%rbp), %rax
.L1439:
	addq	%rcx, %rax
	popq	%rbx
	popq	%rdx
	.cfi_remember_state
	.cfi_def_cfa 10, 0
	popq	%r12
	popq	%r13
	popq	%r14
	popq	%r15
	popq	%rbp
	leaq	-8(%rdx), %rsp
	.cfi_def_cfa 7, 8
	ret
.L1447:
	.cfi_restore_state
	movl	$1, %r15d
	xorl	%edx, %edx
	jmp	.L1440
.L1453:
	movq	88(%rdi), %rax
	xorl	%ecx, %ecx
	movq	%rax, -64(%rbp)
	jmp	.L1439
	.cfi_endproc
.LFE234:
	.size	_Z13access_randomILi12ELi1EEP6recordPS1_ll, .-_Z13access_randomILi12ELi1EEP6recordPS1_ll
	.section	.text.unlikely._Z13access_randomILi12ELi1EEP6recordPS1_ll,"axG",@progbits,_Z13access_randomILi12ELi1EEP6recordPS1_ll,comdat
.LCOLDE72:
	.section	.text._Z13access_randomILi12ELi1EEP6recordPS1_ll,"axG",@progbits,_Z13access_randomILi12ELi1EEP6recordPS1_ll,comdat
.LHOTE72:
	.section	.text.unlikely._Z13access_randomILi12ELi0EEP6recordPS1_ll,"axG",@progbits,_Z13access_randomILi12ELi0EEP6recordPS1_ll,comdat
.LCOLDB73:
	.section	.text._Z13access_randomILi12ELi0EEP6recordPS1_ll,"axG",@progbits,_Z13access_randomILi12ELi0EEP6recordPS1_ll,comdat
.LHOTB73:
	.p2align 4,,15
	.weak	_Z13access_randomILi12ELi0EEP6recordPS1_ll
	.type	_Z13access_randomILi12ELi0EEP6recordPS1_ll, @function
_Z13access_randomILi12ELi0EEP6recordPS1_ll:
.LFB237:
	.cfi_startproc
	pushq	%r15
	.cfi_def_cfa_offset 16
	.cfi_offset 15, -16
	movq	%rdi, %rax
	pushq	%r14
	.cfi_def_cfa_offset 24
	.cfi_offset 14, -24
	pushq	%r13
	.cfi_def_cfa_offset 32
	.cfi_offset 13, -32
	pushq	%r12
	.cfi_def_cfa_offset 40
	.cfi_offset 12, -40
	pushq	%rbp
	.cfi_def_cfa_offset 48
	.cfi_offset 6, -48
	pushq	%rbx
	.cfi_def_cfa_offset 56
	.cfi_offset 3, -56
	movq	%rdx, -8(%rsp)
	testq	%rdx, %rdx
	jle	.L1491
	movq	88(%rdi), %rdi
	leaq	-1(%rsi), %r15
	movq	%rsi, -56(%rsp)
	movq	80(%rax), %rdx
	movq	$0, -24(%rsp)
	movq	(%rax), %r13
	movq	8(%rax), %r12
	movq	%rdi, -64(%rsp)
	movq	16(%rax), %rbp
	movq	24(%rax), %rbx
	movq	%rdx, %r14
	movq	32(%rax), %rdi
	leaq	1(%rsi,%rsi), %rdx
	movq	%r14, %rsi
	movq	40(%rax), %r11
	movq	%rdx, -32(%rsp)
	movq	48(%rax), %r10
	movq	56(%rax), %r9
	movq	64(%rax), %r8
	movq	72(%rax), %rcx
	movq	%r15, %rax
	shrq	$63, %rax
	addq	%rax, %r15
	sarq	%r15
	movq	%r15, -16(%rsp)
	addq	%r15, %r15
	movq	%r15, -40(%rsp)
	.p2align 4,,10
	.p2align 3
.L1463:
#APP
# 207 "mem.cc" 1
	# random loop begin (n_chains = $12, payload = $0)
# 0 "" 2
#NO_APP
	xorl	%r14d, %r14d
	cmpq	$0, -16(%rsp)
	jle	.L1464
	xorl	%eax, %eax
	testb	$2, -40(%rsp)
	je	.L1492
	movq	%rcx, -48(%rsp)
	jmp	.L1459
	.p2align 4,,10
	.p2align 3
.L1465:
	leaq	1(%rdx,%r14), %rax
	movq	%rax, %r15
	subq	-56(%rsp), %r15
	js	.L1477
	movq	%r15, %rax
	subq	-56(%rsp), %rax
	cmovs	%r15, %rax
.L1477:
	salq	$6, %rdx
	addq	$2, %r14
	leaq	0(%r13,%rdx), %r15
	movq	(%r15), %r15
	leaq	(%r12,%rdx), %r15
	movq	(%r15), %r15
	leaq	0(%rbp,%rdx), %r15
	movq	(%r15), %r15
	leaq	(%rbx,%rdx), %r15
	movq	(%r15), %r15
	leaq	(%rdi,%rdx), %r15
	movq	(%r15), %r15
	leaq	(%r11,%rdx), %r15
	movq	(%r15), %r15
	leaq	(%r10,%rdx), %r15
	movq	(%r15), %r15
	leaq	(%r9,%rdx), %r15
	movq	(%r15), %r15
	leaq	(%rcx,%rdx), %rcx
	leaq	(%r8,%rdx), %r15
	movq	(%r15), %r15
	movq	(%rcx), %r15
	leaq	(%rsi,%rdx), %r15
	addq	-64(%rsp), %rdx
	movq	(%r15), %r15
	movq	(%rdx), %rdx
.L1459:
	leaq	1(%r14,%rax), %rdx
	movq	%rdx, %r15
	subq	-56(%rsp), %r15
	js	.L1458
	movq	%r15, %rcx
	subq	-56(%rsp), %rcx
	movq	%rcx, %rdx
	cmovs	%r15, %rdx
.L1458:
	salq	$6, %rax
	addq	$2, %r14
	leaq	(%r12,%rax), %rcx
	leaq	0(%r13,%rax), %r15
	movq	(%r15), %r15
	movq	(%rcx), %r15
	leaq	(%rbx,%rax), %rcx
	leaq	0(%rbp,%rax), %r15
	movq	(%r15), %r15
	movq	(%rcx), %r15
	leaq	(%r11,%rax), %rcx
	leaq	(%rdi,%rax), %r15
	movq	(%r15), %r15
	movq	(%rcx), %r15
	leaq	(%r9,%rax), %rcx
	leaq	(%r10,%rax), %r15
	movq	(%r15), %r15
	movq	(%rcx), %r15
	leaq	(%r8,%rax), %r15
	movq	-48(%rsp), %rcx
	movq	(%r15), %r15
	leaq	(%rcx,%rax), %r15
	movq	(%r15), %r15
	leaq	(%rsi,%rax), %r15
	addq	-64(%rsp), %rax
	movq	(%r15), %r15
	movq	(%rax), %rax
	cmpq	-40(%rsp), %r14
	jne	.L1465
	movq	-16(%rsp), %r14
	leaq	1(%r14), %r15
	movq	%rdx, %r14
	salq	$6, %r14
.L1457:
	movq	-56(%rsp), %rax
	subq	%rdx, %rax
	leaq	0(%r13,%r14), %rdx
	movq	(%rdx), %rdx
	leaq	(%r12,%r14), %rdx
	movq	(%rdx), %rdx
	leaq	0(%rbp,%r14), %rdx
	movq	(%rdx), %rdx
	leaq	(%rbx,%r14), %rdx
	movq	(%rdx), %rdx
	leaq	(%rdi,%r14), %rdx
	movq	(%rdx), %rdx
	leaq	(%r11,%r14), %rdx
	movq	(%rdx), %rdx
	leaq	(%r10,%r14), %rdx
	movq	(%rdx), %rdx
	leaq	(%r9,%r14), %rdx
	movq	(%rdx), %rdx
	leaq	(%r8,%r14), %rdx
	movq	(%rdx), %rdx
	leaq	(%rcx,%r14), %rdx
	movq	(%rdx), %rdx
	leaq	(%rsi,%r14), %rdx
	addq	-64(%rsp), %r14
	movq	(%rdx), %rdx
	movq	(%r14), %rdx
	cmpq	%r15, -56(%rsp)
	jle	.L1466
	leaq	1(%r15,%r15), %r14
	movq	-32(%rsp), %r15
	subq	%r14, %r15
	andl	$2, %r15d
	jne	.L1462
	movq	%rax, %r15
	subq	%r14, %r15
	js	.L1493
.L1469:
	salq	$6, %rax
	addq	$2, %r14
	leaq	0(%r13,%rax), %rdx
	movq	(%rdx), %rdx
	leaq	(%r12,%rax), %rdx
	movq	(%rdx), %rdx
	leaq	0(%rbp,%rax), %rdx
	movq	(%rdx), %rdx
	leaq	(%rbx,%rax), %rdx
	movq	(%rdx), %rdx
	leaq	(%rdi,%rax), %rdx
	movq	(%rdx), %rdx
	leaq	(%r11,%rax), %rdx
	movq	(%rdx), %rdx
	leaq	(%r10,%rax), %rdx
	movq	(%rdx), %rdx
	leaq	(%r9,%rax), %rdx
	movq	(%rdx), %rdx
	leaq	(%r8,%rax), %rdx
	movq	(%rdx), %rdx
	leaq	(%rcx,%rax), %rdx
	movq	(%rdx), %rdx
	leaq	(%rsi,%rax), %rdx
	addq	-64(%rsp), %rax
	movq	(%rdx), %rdx
	movq	(%rax), %rax
	movq	%r15, %rax
	jmp	.L1462
	.p2align 4,,10
	.p2align 3
.L1461:
	salq	$6, %rax
	addq	$2, %r14
	leaq	0(%r13,%rax), %r15
	movq	(%r15), %r15
	leaq	(%r12,%rax), %r15
	movq	(%r15), %r15
	leaq	0(%rbp,%rax), %r15
	movq	(%r15), %r15
	leaq	(%rbx,%rax), %r15
	movq	(%r15), %r15
	leaq	(%rdi,%rax), %r15
	movq	(%r15), %r15
	leaq	(%r11,%rax), %r15
	movq	(%r15), %r15
	leaq	(%r10,%rax), %r15
	movq	(%r15), %r15
	leaq	(%r9,%rax), %r15
	movq	(%r15), %r15
	leaq	(%r8,%rax), %r15
	movq	(%r15), %r15
	leaq	(%rcx,%rax), %r15
	movq	(%r15), %r15
	leaq	(%rsi,%rax), %r15
	addq	-64(%rsp), %rax
	movq	(%r15), %r15
	movq	(%rax), %rax
	cmpq	%r14, -32(%rsp)
	je	.L1460
	movq	%rdx, %rax
	subq	%r14, %rax
	js	.L1494
.L1472:
	salq	$6, %rdx
	addq	$2, %r14
	leaq	0(%r13,%rdx), %r15
	movq	(%r15), %r15
	leaq	(%r12,%rdx), %r15
	movq	(%r15), %r15
	leaq	0(%rbp,%rdx), %r15
	movq	(%r15), %r15
	leaq	(%rbx,%rdx), %r15
	movq	(%r15), %r15
	leaq	(%rdi,%rdx), %r15
	movq	(%r15), %r15
	leaq	(%r11,%rdx), %r15
	movq	(%r15), %r15
	leaq	(%r10,%rdx), %r15
	movq	(%r15), %r15
	leaq	(%r9,%rdx), %r15
	movq	(%r15), %r15
	leaq	(%r8,%rdx), %r15
	movq	(%r15), %r15
	leaq	(%rcx,%rdx), %r15
	movq	(%r15), %r15
	leaq	(%rsi,%rdx), %r15
	addq	-64(%rsp), %rdx
	movq	(%r15), %r15
	movq	(%rdx), %rdx
.L1462:
	movq	%rax, %rdx
	subq	%r14, %rdx
	jns	.L1461
	movq	-56(%rsp), %r15
	addq	%r15, %rdx
	jns	.L1461
	addq	%r15, %rdx
	jmp	.L1461
	.p2align 4,,10
	.p2align 3
.L1494:
	movq	-56(%rsp), %r15
	addq	%r15, %rax
	jns	.L1472
	addq	%r15, %rax
	jmp	.L1472
	.p2align 4,,10
	.p2align 3
.L1466:
	movq	%rax, %rdx
	.p2align 4,,10
	.p2align 3
.L1460:
#APP
# 249 "mem.cc" 1
	# random loop end (n_chains = $12, payload = $0)
# 0 "" 2
#NO_APP
	addq	$1, -24(%rsp)
	movq	-24(%rsp), %r14
	cmpq	%r14, -8(%rsp)
	jne	.L1463
	movq	-64(%rsp), %rax
	salq	$6, %rdx
	popq	%rbx
	.cfi_remember_state
	.cfi_def_cfa_offset 48
	popq	%rbp
	.cfi_def_cfa_offset 40
	popq	%r12
	.cfi_def_cfa_offset 32
	addq	%rdx, %rax
	popq	%r13
	.cfi_def_cfa_offset 24
	popq	%r14
	.cfi_def_cfa_offset 16
	popq	%r15
	.cfi_def_cfa_offset 8
	ret
	.p2align 4,,10
	.p2align 3
.L1492:
	.cfi_restore_state
	movq	-56(%rsp), %r14
	movl	$1, %eax
	movq	%rax, %r15
	subq	%r14, %r15
	js	.L1474
	movq	%r15, %rax
	subq	%r14, %rax
	cmovs	%r15, %rax
.L1474:
	movq	0(%r13), %rdx
	movl	$2, %r14d
	movq	%rcx, -48(%rsp)
	movq	(%r12), %rdx
	movq	0(%rbp), %rdx
	movq	(%rbx), %rdx
	movq	(%rdi), %rdx
	movq	(%r11), %rdx
	movq	(%r10), %rdx
	movq	(%r9), %rdx
	movq	(%r8), %rdx
	movq	(%rcx), %rdx
	movq	(%rsi), %rdx
	movq	-64(%rsp), %rdx
	movq	(%rdx), %rdx
	jmp	.L1459
	.p2align 4,,10
	.p2align 3
.L1493:
	movq	-56(%rsp), %rdx
	addq	%rdx, %r15
	jns	.L1469
	addq	%rdx, %r15
	jmp	.L1469
	.p2align 4,,10
	.p2align 3
.L1464:
	movl	$1, %r15d
	xorl	%edx, %edx
	jmp	.L1457
.L1491:
	movq	88(%rdi), %rax
	xorl	%edx, %edx
	movq	%rax, -64(%rsp)
	popq	%rbx
	.cfi_def_cfa_offset 48
	addq	%rdx, %rax
	popq	%rbp
	.cfi_def_cfa_offset 40
	popq	%r12
	.cfi_def_cfa_offset 32
	popq	%r13
	.cfi_def_cfa_offset 24
	popq	%r14
	.cfi_def_cfa_offset 16
	popq	%r15
	.cfi_def_cfa_offset 8
	ret
	.cfi_endproc
.LFE237:
	.size	_Z13access_randomILi12ELi0EEP6recordPS1_ll, .-_Z13access_randomILi12ELi0EEP6recordPS1_ll
	.section	.text.unlikely._Z13access_randomILi12ELi0EEP6recordPS1_ll,"axG",@progbits,_Z13access_randomILi12ELi0EEP6recordPS1_ll,comdat
.LCOLDE73:
	.section	.text._Z13access_randomILi12ELi0EEP6recordPS1_ll,"axG",@progbits,_Z13access_randomILi12ELi0EEP6recordPS1_ll,comdat
.LHOTE73:
	.section	.text.unlikely._Z13access_randomILi13ELi1EEP6recordPS1_ll,"axG",@progbits,_Z13access_randomILi13ELi1EEP6recordPS1_ll,comdat
.LCOLDB74:
	.section	.text._Z13access_randomILi13ELi1EEP6recordPS1_ll,"axG",@progbits,_Z13access_randomILi13ELi1EEP6recordPS1_ll,comdat
.LHOTB74:
	.p2align 4,,15
	.weak	_Z13access_randomILi13ELi1EEP6recordPS1_ll
	.type	_Z13access_randomILi13ELi1EEP6recordPS1_ll, @function
_Z13access_randomILi13ELi1EEP6recordPS1_ll:
.LFB240:
	.cfi_startproc
	leaq	8(%rsp), %r10
	.cfi_def_cfa 10, 0
	andq	$-32, %rsp
	movq	%rdi, %rax
	pushq	-8(%r10)
	pushq	%rbp
	.cfi_escape 0x10,0x6,0x2,0x76,0
	movq	%rsp, %rbp
	pushq	%r15
	pushq	%r14
	pushq	%r13
	pushq	%r12
	pushq	%r10
	.cfi_escape 0xf,0x3,0x76,0x58,0x6
	.cfi_escape 0x10,0xf,0x2,0x76,0x78
	.cfi_escape 0x10,0xe,0x2,0x76,0x70
	.cfi_escape 0x10,0xd,0x2,0x76,0x68
	.cfi_escape 0x10,0xc,0x2,0x76,0x60
	pushq	%rbx
	.cfi_escape 0x10,0x3,0x2,0x76,0x50
	movq	%rdx, -128(%rbp)
	testq	%rdx, %rdx
	jle	.L1511
	movq	96(%rdi), %rdi
	leaq	-1(%rsi), %rdx
	movq	$0, -112(%rbp)
	movq	%rdx, %rcx
	movq	72(%rax), %r15
	movq	%rsi, -56(%rbp)
	shrq	$63, %rcx
	movq	80(%rax), %r14
	addq	%rcx, %rdx
	movq	(%rax), %r13
	movq	%rdi, -64(%rbp)
	movq	8(%rax), %r12
	sarq	%rdx
	movq	16(%rax), %rbx
	movq	%rdx, -120(%rbp)
	addq	%rdx, %rdx
	movq	24(%rax), %rdi
	movq	%rdx, -96(%rbp)
	leaq	1(%rsi,%rsi), %rdx
	movq	32(%rax), %r11
	movq	%r15, -72(%rbp)
	movq	40(%rax), %r10
	movq	%r14, -80(%rbp)
	movq	48(%rax), %r9
	movq	%rdx, -104(%rbp)
	movq	56(%rax), %r8
	movq	64(%rax), %rcx
	movq	88(%rax), %rax
	movq	%rax, %r15
	.p2align 4,,10
	.p2align 3
.L1504:
#APP
# 207 "mem.cc" 1
	# random loop begin (n_chains = $13, payload = $1)
# 0 "" 2
#NO_APP
	xorl	%esi, %esi
	cmpq	$0, -120(%rbp)
	jle	.L1505
	xorl	%eax, %eax
	movq	%rcx, -88(%rbp)
	jmp	.L1500
	.p2align 4,,10
	.p2align 3
.L1506:
	movq	%rdx, %rax
.L1500:
	leaq	1(%rsi,%rax), %rdx
	movq	%rdx, %r14
	subq	-56(%rbp), %r14
	js	.L1499
	movq	%r14, %rcx
	subq	-56(%rbp), %rcx
	movq	%rcx, %rdx
	cmovs	%r14, %rdx
.L1499:
	salq	$6, %rax
	addq	$2, %rsi
	leaq	0(%r13,%rax), %r14
	vmovdqa	(%r14), %ymm0
	leaq	(%r12,%rax), %rcx
	vmovdqa	32(%r14), %ymm0
	leaq	(%rbx,%rax), %r14
	vmovdqa	(%rcx), %ymm0
	vmovdqa	32(%rcx), %ymm0
	leaq	(%rdi,%rax), %rcx
	vmovdqa	(%r14), %ymm0
	vmovdqa	32(%r14), %ymm0
	leaq	(%r11,%rax), %r14
	vmovdqa	(%rcx), %ymm0
	vmovdqa	32(%rcx), %ymm0
	leaq	(%r10,%rax), %rcx
	vmovdqa	(%r14), %ymm0
	vmovdqa	32(%r14), %ymm0
	leaq	(%r9,%rax), %r14
	vmovdqa	(%rcx), %ymm0
	vmovdqa	32(%rcx), %ymm0
	leaq	(%r8,%rax), %rcx
	vmovdqa	(%r14), %ymm0
	vmovdqa	32(%r14), %ymm0
	movq	-88(%rbp), %r14
	vmovdqa	(%rcx), %ymm0
	vmovdqa	32(%rcx), %ymm0
	leaq	(%r14,%rax), %rcx
	movq	-72(%rbp), %r14
	vmovdqa	(%rcx), %ymm0
	vmovdqa	32(%rcx), %ymm0
	leaq	(%r14,%rax), %rcx
	movq	-80(%rbp), %r14
	vmovdqa	(%rcx), %ymm0
	vmovdqa	32(%rcx), %ymm0
	leaq	(%r14,%rax), %rcx
	leaq	(%r15,%rax), %r14
	addq	-64(%rbp), %rax
	vmovdqa	(%rcx), %ymm0
	vmovdqa	32(%rcx), %ymm0
	vmovdqa	(%r14), %ymm0
	vmovdqa	32(%r14), %ymm0
	vmovdqa	(%rax), %ymm0
	vmovdqa	32(%rax), %ymm0
	cmpq	-96(%rbp), %rsi
	jne	.L1506
	movq	-120(%rbp), %r14
	movq	%rdx, %rsi
	movq	-88(%rbp), %rcx
	salq	$6, %rsi
	leaq	1(%r14), %r14
.L1498:
	movq	-56(%rbp), %rax
	subq	%rdx, %rax
	leaq	0(%r13,%rsi), %rdx
	vmovdqa	(%rdx), %ymm0
	vmovdqa	32(%rdx), %ymm0
	leaq	(%r12,%rsi), %rdx
	vmovdqa	(%rdx), %ymm0
	vmovdqa	32(%rdx), %ymm0
	leaq	(%rbx,%rsi), %rdx
	vmovdqa	(%rdx), %ymm0
	vmovdqa	32(%rdx), %ymm0
	leaq	(%rdi,%rsi), %rdx
	vmovdqa	(%rdx), %ymm0
	vmovdqa	32(%rdx), %ymm0
	leaq	(%r11,%rsi), %rdx
	vmovdqa	(%rdx), %ymm0
	vmovdqa	32(%rdx), %ymm0
	leaq	(%r10,%rsi), %rdx
	vmovdqa	(%rdx), %ymm0
	vmovdqa	32(%rdx), %ymm0
	leaq	(%r9,%rsi), %rdx
	vmovdqa	(%rdx), %ymm0
	vmovdqa	32(%rdx), %ymm0
	leaq	(%r8,%rsi), %rdx
	vmovdqa	(%rdx), %ymm0
	vmovdqa	32(%rdx), %ymm0
	leaq	(%rcx,%rsi), %rdx
	vmovdqa	(%rdx), %ymm0
	vmovdqa	32(%rdx), %ymm0
	movq	-72(%rbp), %rdx
	addq	%rsi, %rdx
	vmovdqa	(%rdx), %ymm0
	vmovdqa	32(%rdx), %ymm0
	movq	-80(%rbp), %rdx
	addq	%rsi, %rdx
	vmovdqa	(%rdx), %ymm0
	vmovdqa	32(%rdx), %ymm0
	leaq	(%r15,%rsi), %rdx
	addq	-64(%rbp), %rsi
	vmovdqa	(%rdx), %ymm0
	vmovdqa	32(%rdx), %ymm0
	vmovdqa	(%rsi), %ymm0
	vmovdqa	32(%rsi), %ymm0
	cmpq	%r14, -56(%rbp)
	jle	.L1507
	leaq	1(%r14,%r14), %rdx
	jmp	.L1503
	.p2align 4,,10
	.p2align 3
.L1502:
	salq	$6, %rax
	addq	$2, %rdx
	leaq	0(%r13,%rax), %rsi
	vmovdqa	(%rsi), %ymm0
	vmovdqa	32(%rsi), %ymm0
	leaq	(%r12,%rax), %rsi
	vmovdqa	(%rsi), %ymm0
	vmovdqa	32(%rsi), %ymm0
	leaq	(%rbx,%rax), %rsi
	vmovdqa	(%rsi), %ymm0
	vmovdqa	32(%rsi), %ymm0
	leaq	(%rdi,%rax), %rsi
	vmovdqa	(%rsi), %ymm0
	vmovdqa	32(%rsi), %ymm0
	leaq	(%r11,%rax), %rsi
	vmovdqa	(%rsi), %ymm0
	vmovdqa	32(%rsi), %ymm0
	leaq	(%r10,%rax), %rsi
	vmovdqa	(%rsi), %ymm0
	vmovdqa	32(%rsi), %ymm0
	leaq	(%r9,%rax), %rsi
	vmovdqa	(%rsi), %ymm0
	vmovdqa	32(%rsi), %ymm0
	leaq	(%r8,%rax), %rsi
	vmovdqa	(%rsi), %ymm0
	vmovdqa	32(%rsi), %ymm0
	leaq	(%rcx,%rax), %rsi
	vmovdqa	(%rsi), %ymm0
	vmovdqa	32(%rsi), %ymm0
	movq	-72(%rbp), %rsi
	addq	%rax, %rsi
	vmovdqa	(%rsi), %ymm0
	vmovdqa	32(%rsi), %ymm0
	movq	-80(%rbp), %rsi
	addq	%rax, %rsi
	vmovdqa	(%rsi), %ymm0
	vmovdqa	32(%rsi), %ymm0
	leaq	(%r15,%rax), %rsi
	addq	-64(%rbp), %rax
	vmovdqa	(%rsi), %ymm0
	vmovdqa	32(%rsi), %ymm0
	vmovdqa	(%rax), %ymm0
	vmovdqa	32(%rax), %ymm0
	cmpq	%rdx, -104(%rbp)
	je	.L1501
	movq	%r14, %rax
.L1503:
	movq	%rax, %r14
	subq	%rdx, %r14
	jns	.L1502
	movq	-56(%rbp), %rsi
	addq	%rsi, %r14
	jns	.L1502
	addq	%rsi, %r14
	jmp	.L1502
.L1507:
	movq	%rax, %r14
	.p2align 4,,10
	.p2align 3
.L1501:
#APP
# 249 "mem.cc" 1
	# random loop end (n_chains = $13, payload = $1)
# 0 "" 2
#NO_APP
	addq	$1, -112(%rbp)
	movq	-112(%rbp), %rsi
	cmpq	%rsi, -128(%rbp)
	jne	.L1504
	salq	$6, %r14
	vzeroupper
	movq	-64(%rbp), %rax
.L1497:
	addq	%r14, %rax
	popq	%rbx
	popq	%rdx
	.cfi_remember_state
	.cfi_def_cfa 10, 0
	popq	%r12
	popq	%r13
	popq	%r14
	popq	%r15
	popq	%rbp
	leaq	-8(%rdx), %rsp
	.cfi_def_cfa 7, 8
	ret
.L1505:
	.cfi_restore_state
	movl	$1, %r14d
	xorl	%edx, %edx
	jmp	.L1498
.L1511:
	movq	96(%rdi), %rax
	xorl	%r14d, %r14d
	movq	%rax, -64(%rbp)
	jmp	.L1497
	.cfi_endproc
.LFE240:
	.size	_Z13access_randomILi13ELi1EEP6recordPS1_ll, .-_Z13access_randomILi13ELi1EEP6recordPS1_ll
	.section	.text.unlikely._Z13access_randomILi13ELi1EEP6recordPS1_ll,"axG",@progbits,_Z13access_randomILi13ELi1EEP6recordPS1_ll,comdat
.LCOLDE74:
	.section	.text._Z13access_randomILi13ELi1EEP6recordPS1_ll,"axG",@progbits,_Z13access_randomILi13ELi1EEP6recordPS1_ll,comdat
.LHOTE74:
	.section	.text.unlikely._Z13access_randomILi13ELi0EEP6recordPS1_ll,"axG",@progbits,_Z13access_randomILi13ELi0EEP6recordPS1_ll,comdat
.LCOLDB75:
	.section	.text._Z13access_randomILi13ELi0EEP6recordPS1_ll,"axG",@progbits,_Z13access_randomILi13ELi0EEP6recordPS1_ll,comdat
.LHOTB75:
	.p2align 4,,15
	.weak	_Z13access_randomILi13ELi0EEP6recordPS1_ll
	.type	_Z13access_randomILi13ELi0EEP6recordPS1_ll, @function
_Z13access_randomILi13ELi0EEP6recordPS1_ll:
.LFB243:
	.cfi_startproc
	pushq	%r15
	.cfi_def_cfa_offset 16
	.cfi_offset 15, -16
	movq	%rdi, %rax
	pushq	%r14
	.cfi_def_cfa_offset 24
	.cfi_offset 14, -24
	pushq	%r13
	.cfi_def_cfa_offset 32
	.cfi_offset 13, -32
	pushq	%r12
	.cfi_def_cfa_offset 40
	.cfi_offset 12, -40
	pushq	%rbp
	.cfi_def_cfa_offset 48
	.cfi_offset 6, -48
	pushq	%rbx
	.cfi_def_cfa_offset 56
	.cfi_offset 3, -56
	movq	%rdx, -8(%rsp)
	testq	%rdx, %rdx
	jle	.L1549
	movq	96(%rdi), %rdi
	movq	%rsi, -64(%rsp)
	movq	80(%rax), %rdx
	movq	$0, -24(%rsp)
	movq	88(%rax), %r14
	movq	(%rax), %r13
	movq	%rdi, -72(%rsp)
	movq	8(%rax), %r12
	movq	16(%rax), %rbp
	movq	%rdx, -56(%rsp)
	movq	24(%rax), %rbx
	movq	%r14, %r15
	movq	32(%rax), %rdi
	leaq	1(%rsi,%rsi), %r14
	movq	40(%rax), %r11
	movq	%r14, -32(%rsp)
	movq	48(%rax), %r10
	movq	56(%rax), %r9
	movq	64(%rax), %r8
	movq	72(%rax), %rcx
	leaq	-1(%rsi), %rax
	movq	%r15, %rsi
	movq	%rax, %rdx
	shrq	$63, %rdx
	addq	%rdx, %rax
	sarq	%rax
	movq	%rax, -16(%rsp)
	addq	%rax, %rax
	movq	%rax, -40(%rsp)
	.p2align 4,,10
	.p2align 3
.L1521:
#APP
# 207 "mem.cc" 1
	# random loop begin (n_chains = $13, payload = $0)
# 0 "" 2
#NO_APP
	xorl	%r14d, %r14d
	cmpq	$0, -16(%rsp)
	jle	.L1522
	xorl	%eax, %eax
	testb	$2, -40(%rsp)
	je	.L1550
	movq	%rcx, -48(%rsp)
	jmp	.L1517
	.p2align 4,,10
	.p2align 3
.L1523:
	leaq	1(%rdx,%r14), %rax
	movq	%rax, %r15
	subq	-64(%rsp), %r15
	js	.L1535
	movq	%r15, %rax
	subq	-64(%rsp), %rax
	cmovs	%r15, %rax
.L1535:
	salq	$6, %rdx
	addq	$2, %r14
	leaq	0(%r13,%rdx), %rcx
	movq	(%rcx), %r15
	leaq	0(%rbp,%rdx), %rcx
	leaq	(%r12,%rdx), %r15
	movq	(%r15), %r15
	movq	(%rcx), %r15
	leaq	(%rdi,%rdx), %rcx
	leaq	(%rbx,%rdx), %r15
	movq	(%r15), %r15
	movq	(%rcx), %r15
	leaq	(%r10,%rdx), %rcx
	leaq	(%r11,%rdx), %r15
	movq	(%r15), %r15
	movq	(%rcx), %r15
	leaq	(%r8,%rdx), %rcx
	leaq	(%r9,%rdx), %r15
	movq	(%r15), %r15
	movq	(%rcx), %r15
	movq	-48(%rsp), %r15
	leaq	(%r15,%rdx), %rcx
	movq	(%rcx), %r15
	movq	-56(%rsp), %r15
	leaq	(%r15,%rdx), %rcx
	movq	(%rcx), %r15
	leaq	(%rsi,%rdx), %r15
	addq	-72(%rsp), %rdx
	movq	(%r15), %r15
	movq	(%rdx), %rdx
.L1517:
	leaq	1(%r14,%rax), %rdx
	movq	%rdx, %r15
	subq	-64(%rsp), %r15
	js	.L1516
	movq	%r15, %rcx
	subq	-64(%rsp), %rcx
	movq	%rcx, %rdx
	cmovs	%r15, %rdx
.L1516:
	salq	$6, %rax
	addq	$2, %r14
	leaq	(%r12,%rax), %rcx
	leaq	0(%r13,%rax), %r15
	movq	(%r15), %r15
	movq	(%rcx), %r15
	leaq	(%rbx,%rax), %rcx
	leaq	0(%rbp,%rax), %r15
	movq	(%r15), %r15
	movq	(%rcx), %r15
	leaq	(%r11,%rax), %rcx
	leaq	(%rdi,%rax), %r15
	movq	(%r15), %r15
	movq	(%rcx), %r15
	leaq	(%r9,%rax), %rcx
	leaq	(%r10,%rax), %r15
	movq	(%r15), %r15
	movq	(%rcx), %r15
	leaq	(%r8,%rax), %r15
	movq	-48(%rsp), %rcx
	movq	(%r15), %r15
	leaq	(%rcx,%rax), %r15
	movq	-56(%rsp), %rcx
	movq	(%r15), %r15
	leaq	(%rcx,%rax), %r15
	leaq	(%rsi,%rax), %rcx
	addq	-72(%rsp), %rax
	movq	(%r15), %r15
	movq	(%rcx), %r15
	movq	(%rax), %rax
	cmpq	-40(%rsp), %r14
	jne	.L1523
	movq	-16(%rsp), %r14
	movq	-48(%rsp), %rcx
	leaq	1(%r14), %r15
	movq	%rdx, %r14
	salq	$6, %r14
.L1515:
	movq	-64(%rsp), %rax
	subq	%rdx, %rax
	leaq	0(%r13,%r14), %rdx
	movq	(%rdx), %rdx
	leaq	(%r12,%r14), %rdx
	movq	(%rdx), %rdx
	leaq	0(%rbp,%r14), %rdx
	movq	(%rdx), %rdx
	leaq	(%rbx,%r14), %rdx
	movq	(%rdx), %rdx
	leaq	(%rdi,%r14), %rdx
	movq	(%rdx), %rdx
	leaq	(%r11,%r14), %rdx
	movq	(%rdx), %rdx
	leaq	(%r10,%r14), %rdx
	movq	(%rdx), %rdx
	leaq	(%r9,%r14), %rdx
	movq	(%rdx), %rdx
	leaq	(%r8,%r14), %rdx
	movq	(%rdx), %rdx
	leaq	(%rcx,%r14), %rdx
	movq	(%rdx), %rdx
	movq	-56(%rsp), %rdx
	addq	%r14, %rdx
	movq	(%rdx), %rdx
	leaq	(%rsi,%r14), %rdx
	addq	-72(%rsp), %r14
	movq	(%rdx), %rdx
	movq	(%r14), %rdx
	cmpq	%r15, -64(%rsp)
	jle	.L1524
	leaq	1(%r15,%r15), %r14
	movq	-32(%rsp), %r15
	subq	%r14, %r15
	andl	$2, %r15d
	jne	.L1520
	movq	%rax, %r15
	subq	%r14, %r15
	js	.L1551
.L1527:
	salq	$6, %rax
	addq	$2, %r14
	leaq	0(%r13,%rax), %rdx
	movq	(%rdx), %rdx
	leaq	(%r12,%rax), %rdx
	movq	(%rdx), %rdx
	leaq	0(%rbp,%rax), %rdx
	movq	(%rdx), %rdx
	leaq	(%rbx,%rax), %rdx
	movq	(%rdx), %rdx
	leaq	(%rdi,%rax), %rdx
	movq	(%rdx), %rdx
	leaq	(%r11,%rax), %rdx
	movq	(%rdx), %rdx
	leaq	(%r10,%rax), %rdx
	movq	(%rdx), %rdx
	leaq	(%r9,%rax), %rdx
	movq	(%rdx), %rdx
	leaq	(%r8,%rax), %rdx
	movq	(%rdx), %rdx
	leaq	(%rcx,%rax), %rdx
	movq	(%rdx), %rdx
	movq	-56(%rsp), %rdx
	addq	%rax, %rdx
	movq	(%rdx), %rdx
	leaq	(%rsi,%rax), %rdx
	addq	-72(%rsp), %rax
	movq	(%rdx), %rdx
	movq	(%rax), %rax
	movq	%r15, %rax
	jmp	.L1520
	.p2align 4,,10
	.p2align 3
.L1519:
	salq	$6, %rax
	addq	$2, %r14
	leaq	0(%r13,%rax), %r15
	movq	(%r15), %r15
	leaq	(%r12,%rax), %r15
	movq	(%r15), %r15
	leaq	0(%rbp,%rax), %r15
	movq	(%r15), %r15
	leaq	(%rbx,%rax), %r15
	movq	(%r15), %r15
	leaq	(%rdi,%rax), %r15
	movq	(%r15), %r15
	leaq	(%r11,%rax), %r15
	movq	(%r15), %r15
	leaq	(%r10,%rax), %r15
	movq	(%r15), %r15
	leaq	(%r9,%rax), %r15
	movq	(%r15), %r15
	leaq	(%r8,%rax), %r15
	movq	(%r15), %r15
	leaq	(%rcx,%rax), %r15
	movq	(%r15), %r15
	movq	-56(%rsp), %r15
	addq	%rax, %r15
	movq	(%r15), %r15
	leaq	(%rsi,%rax), %r15
	addq	-72(%rsp), %rax
	movq	(%r15), %r15
	movq	(%rax), %rax
	cmpq	%r14, -32(%rsp)
	je	.L1518
	movq	%rdx, %rax
	subq	%r14, %rax
	js	.L1552
.L1530:
	salq	$6, %rdx
	addq	$2, %r14
	leaq	0(%r13,%rdx), %r15
	movq	(%r15), %r15
	leaq	(%r12,%rdx), %r15
	movq	(%r15), %r15
	leaq	0(%rbp,%rdx), %r15
	movq	(%r15), %r15
	leaq	(%rbx,%rdx), %r15
	movq	(%r15), %r15
	leaq	(%rdi,%rdx), %r15
	movq	(%r15), %r15
	leaq	(%r11,%rdx), %r15
	movq	(%r15), %r15
	leaq	(%r10,%rdx), %r15
	movq	(%r15), %r15
	leaq	(%r9,%rdx), %r15
	movq	(%r15), %r15
	leaq	(%r8,%rdx), %r15
	movq	(%r15), %r15
	leaq	(%rcx,%rdx), %r15
	movq	(%r15), %r15
	movq	-56(%rsp), %r15
	addq	%rdx, %r15
	movq	(%r15), %r15
	leaq	(%rsi,%rdx), %r15
	addq	-72(%rsp), %rdx
	movq	(%r15), %r15
	movq	(%rdx), %rdx
.L1520:
	movq	%rax, %rdx
	subq	%r14, %rdx
	jns	.L1519
	movq	-64(%rsp), %r15
	addq	%r15, %rdx
	jns	.L1519
	addq	%r15, %rdx
	jmp	.L1519
	.p2align 4,,10
	.p2align 3
.L1552:
	movq	-64(%rsp), %r15
	addq	%r15, %rax
	jns	.L1530
	addq	%r15, %rax
	jmp	.L1530
	.p2align 4,,10
	.p2align 3
.L1524:
	movq	%rax, %rdx
	.p2align 4,,10
	.p2align 3
.L1518:
#APP
# 249 "mem.cc" 1
	# random loop end (n_chains = $13, payload = $0)
# 0 "" 2
#NO_APP
	addq	$1, -24(%rsp)
	movq	-24(%rsp), %r14
	cmpq	%r14, -8(%rsp)
	jne	.L1521
	movq	-72(%rsp), %rax
	salq	$6, %rdx
	popq	%rbx
	.cfi_remember_state
	.cfi_def_cfa_offset 48
	popq	%rbp
	.cfi_def_cfa_offset 40
	popq	%r12
	.cfi_def_cfa_offset 32
	addq	%rdx, %rax
	popq	%r13
	.cfi_def_cfa_offset 24
	popq	%r14
	.cfi_def_cfa_offset 16
	popq	%r15
	.cfi_def_cfa_offset 8
	ret
	.p2align 4,,10
	.p2align 3
.L1550:
	.cfi_restore_state
	movq	-64(%rsp), %rdx
	movl	$1, %eax
	movq	%rax, %r15
	subq	%rdx, %r15
	js	.L1532
	movq	%r15, %rax
	subq	%rdx, %rax
	cmovs	%r15, %rax
.L1532:
	movq	-56(%rsp), %r14
	movq	%rcx, -48(%rsp)
	movq	-72(%rsp), %r15
	movq	0(%r13), %rdx
	movq	(%r12), %rdx
	movq	0(%rbp), %rdx
	movq	(%rbx), %rdx
	movq	(%rdi), %rdx
	movq	(%r11), %rdx
	movq	(%r10), %rdx
	movq	(%r9), %rdx
	movq	(%r8), %rdx
	movq	(%rcx), %rdx
	movq	(%r14), %rdx
	movl	$2, %r14d
	movq	(%rsi), %rdx
	movq	(%r15), %rdx
	jmp	.L1517
	.p2align 4,,10
	.p2align 3
.L1551:
	movq	-64(%rsp), %rdx
	addq	%rdx, %r15
	jns	.L1527
	addq	%rdx, %r15
	jmp	.L1527
	.p2align 4,,10
	.p2align 3
.L1522:
	movl	$1, %r15d
	xorl	%edx, %edx
	jmp	.L1515
.L1549:
	movq	96(%rdi), %rax
	xorl	%edx, %edx
	movq	%rax, -72(%rsp)
	popq	%rbx
	.cfi_def_cfa_offset 48
	addq	%rdx, %rax
	popq	%rbp
	.cfi_def_cfa_offset 40
	popq	%r12
	.cfi_def_cfa_offset 32
	popq	%r13
	.cfi_def_cfa_offset 24
	popq	%r14
	.cfi_def_cfa_offset 16
	popq	%r15
	.cfi_def_cfa_offset 8
	ret
	.cfi_endproc
.LFE243:
	.size	_Z13access_randomILi13ELi0EEP6recordPS1_ll, .-_Z13access_randomILi13ELi0EEP6recordPS1_ll
	.section	.text.unlikely._Z13access_randomILi13ELi0EEP6recordPS1_ll,"axG",@progbits,_Z13access_randomILi13ELi0EEP6recordPS1_ll,comdat
.LCOLDE75:
	.section	.text._Z13access_randomILi13ELi0EEP6recordPS1_ll,"axG",@progbits,_Z13access_randomILi13ELi0EEP6recordPS1_ll,comdat
.LHOTE75:
	.section	.text.unlikely._Z13access_randomILi14ELi1EEP6recordPS1_ll,"axG",@progbits,_Z13access_randomILi14ELi1EEP6recordPS1_ll,comdat
.LCOLDB76:
	.section	.text._Z13access_randomILi14ELi1EEP6recordPS1_ll,"axG",@progbits,_Z13access_randomILi14ELi1EEP6recordPS1_ll,comdat
.LHOTB76:
	.p2align 4,,15
	.weak	_Z13access_randomILi14ELi1EEP6recordPS1_ll
	.type	_Z13access_randomILi14ELi1EEP6recordPS1_ll, @function
_Z13access_randomILi14ELi1EEP6recordPS1_ll:
.LFB246:
	.cfi_startproc
	leaq	8(%rsp), %r10
	.cfi_def_cfa 10, 0
	andq	$-32, %rsp
	movq	%rdi, %rax
	pushq	-8(%r10)
	pushq	%rbp
	.cfi_escape 0x10,0x6,0x2,0x76,0
	movq	%rsp, %rbp
	pushq	%r15
	pushq	%r14
	pushq	%r13
	pushq	%r12
	pushq	%r10
	.cfi_escape 0xf,0x3,0x76,0x58,0x6
	.cfi_escape 0x10,0xf,0x2,0x76,0x78
	.cfi_escape 0x10,0xe,0x2,0x76,0x70
	.cfi_escape 0x10,0xd,0x2,0x76,0x68
	.cfi_escape 0x10,0xc,0x2,0x76,0x60
	pushq	%rbx
	.cfi_escape 0x10,0x3,0x2,0x76,0x50
	movq	%rdx, -136(%rbp)
	testq	%rdx, %rdx
	jle	.L1569
	leaq	-1(%rsi), %rdx
	movq	72(%rax), %r15
	movq	%rsi, -56(%rbp)
	movq	104(%rdi), %rdi
	movq	%rdx, %rcx
	movq	$0, -120(%rbp)
	shrq	$63, %rcx
	movq	(%rax), %r14
	addq	%rcx, %rdx
	movq	80(%rax), %rcx
	movq	8(%rax), %r13
	movq	%r15, -72(%rbp)
	sarq	%rdx
	movq	88(%rax), %r15
	movq	%rdi, -64(%rbp)
	movq	16(%rax), %r12
	movq	%rdx, -128(%rbp)
	leaq	(%rdx,%rdx), %rdx
	movq	24(%rax), %rbx
	movq	%rcx, -80(%rbp)
	leaq	1(%rsi,%rsi), %rcx
	movq	32(%rax), %rdi
	movq	%rdx, -104(%rbp)
	movq	40(%rax), %r11
	movq	%r15, -88(%rbp)
	movq	48(%rax), %r10
	movq	%rcx, -112(%rbp)
	movq	56(%rax), %r9
	movq	64(%rax), %r8
	movq	96(%rax), %rax
	movq	%rax, %rsi
	.p2align 4,,10
	.p2align 3
.L1562:
#APP
# 207 "mem.cc" 1
	# random loop begin (n_chains = $14, payload = $1)
# 0 "" 2
#NO_APP
	xorl	%ecx, %ecx
	cmpq	$0, -128(%rbp)
	jle	.L1563
	xorl	%eax, %eax
	movq	%rsi, -96(%rbp)
	jmp	.L1558
	.p2align 4,,10
	.p2align 3
.L1564:
	movq	%rdx, %rax
.L1558:
	leaq	1(%rcx,%rax), %rdx
	movq	%rdx, %r15
	subq	-56(%rbp), %r15
	js	.L1557
	movq	%r15, %rsi
	subq	-56(%rbp), %rsi
	movq	%rsi, %rdx
	cmovs	%r15, %rdx
.L1557:
	salq	$6, %rax
	addq	$2, %rcx
	leaq	(%r14,%rax), %r15
	leaq	0(%r13,%rax), %rsi
	vmovdqa	(%r15), %ymm0
	vmovdqa	32(%r15), %ymm0
	leaq	(%r12,%rax), %r15
	vmovdqa	(%rsi), %ymm0
	vmovdqa	32(%rsi), %ymm0
	leaq	(%rbx,%rax), %rsi
	vmovdqa	(%r15), %ymm0
	vmovdqa	32(%r15), %ymm0
	leaq	(%rdi,%rax), %r15
	vmovdqa	(%rsi), %ymm0
	vmovdqa	32(%rsi), %ymm0
	leaq	(%r11,%rax), %rsi
	vmovdqa	(%r15), %ymm0
	vmovdqa	32(%r15), %ymm0
	leaq	(%r10,%rax), %r15
	vmovdqa	(%rsi), %ymm0
	vmovdqa	32(%rsi), %ymm0
	leaq	(%r9,%rax), %rsi
	vmovdqa	(%r15), %ymm0
	vmovdqa	32(%r15), %ymm0
	leaq	(%r8,%rax), %r15
	vmovdqa	(%rsi), %ymm0
	vmovdqa	32(%rsi), %ymm0
	movq	-72(%rbp), %rsi
	vmovdqa	(%r15), %ymm0
	vmovdqa	32(%r15), %ymm0
	leaq	(%rsi,%rax), %r15
	movq	-80(%rbp), %rsi
	vmovdqa	(%r15), %ymm0
	vmovdqa	32(%r15), %ymm0
	leaq	(%rsi,%rax), %r15
	movq	-88(%rbp), %rsi
	vmovdqa	(%r15), %ymm0
	vmovdqa	32(%r15), %ymm0
	leaq	(%rsi,%rax), %r15
	movq	-96(%rbp), %rsi
	vmovdqa	(%r15), %ymm0
	vmovdqa	32(%r15), %ymm0
	leaq	(%rsi,%rax), %r15
	addq	-64(%rbp), %rax
	vmovdqa	(%r15), %ymm0
	vmovdqa	32(%r15), %ymm0
	vmovdqa	(%rax), %ymm0
	vmovdqa	32(%rax), %ymm0
	cmpq	-104(%rbp), %rcx
	jne	.L1564
	movq	-128(%rbp), %r15
	movq	%rdx, %rcx
	salq	$6, %rcx
	leaq	1(%r15), %r15
.L1556:
	movq	-56(%rbp), %rax
	subq	%rdx, %rax
	leaq	(%r14,%rcx), %rdx
	vmovdqa	(%rdx), %ymm0
	vmovdqa	32(%rdx), %ymm0
	leaq	0(%r13,%rcx), %rdx
	vmovdqa	(%rdx), %ymm0
	vmovdqa	32(%rdx), %ymm0
	leaq	(%r12,%rcx), %rdx
	vmovdqa	(%rdx), %ymm0
	vmovdqa	32(%rdx), %ymm0
	leaq	(%rbx,%rcx), %rdx
	vmovdqa	(%rdx), %ymm0
	vmovdqa	32(%rdx), %ymm0
	leaq	(%rdi,%rcx), %rdx
	vmovdqa	(%rdx), %ymm0
	vmovdqa	32(%rdx), %ymm0
	leaq	(%r11,%rcx), %rdx
	vmovdqa	(%rdx), %ymm0
	vmovdqa	32(%rdx), %ymm0
	leaq	(%r10,%rcx), %rdx
	vmovdqa	(%rdx), %ymm0
	vmovdqa	32(%rdx), %ymm0
	leaq	(%r9,%rcx), %rdx
	vmovdqa	(%rdx), %ymm0
	vmovdqa	32(%rdx), %ymm0
	leaq	(%r8,%rcx), %rdx
	vmovdqa	(%rdx), %ymm0
	vmovdqa	32(%rdx), %ymm0
	movq	-72(%rbp), %rdx
	addq	%rcx, %rdx
	vmovdqa	(%rdx), %ymm0
	vmovdqa	32(%rdx), %ymm0
	movq	-80(%rbp), %rdx
	addq	%rcx, %rdx
	vmovdqa	(%rdx), %ymm0
	vmovdqa	32(%rdx), %ymm0
	movq	-88(%rbp), %rdx
	addq	%rcx, %rdx
	vmovdqa	(%rdx), %ymm0
	vmovdqa	32(%rdx), %ymm0
	leaq	(%rsi,%rcx), %rdx
	addq	-64(%rbp), %rcx
	vmovdqa	(%rdx), %ymm0
	vmovdqa	32(%rdx), %ymm0
	vmovdqa	(%rcx), %ymm0
	vmovdqa	32(%rcx), %ymm0
	cmpq	%r15, -56(%rbp)
	jle	.L1565
	leaq	1(%r15,%r15), %rdx
	jmp	.L1561
	.p2align 4,,10
	.p2align 3
.L1560:
	salq	$6, %rax
	addq	$2, %rdx
	leaq	(%r14,%rax), %r15
	vmovdqa	(%r15), %ymm0
	vmovdqa	32(%r15), %ymm0
	leaq	0(%r13,%rax), %r15
	vmovdqa	(%r15), %ymm0
	vmovdqa	32(%r15), %ymm0
	leaq	(%r12,%rax), %r15
	vmovdqa	(%r15), %ymm0
	vmovdqa	32(%r15), %ymm0
	leaq	(%rbx,%rax), %r15
	vmovdqa	(%r15), %ymm0
	vmovdqa	32(%r15), %ymm0
	leaq	(%rdi,%rax), %r15
	vmovdqa	(%r15), %ymm0
	vmovdqa	32(%r15), %ymm0
	leaq	(%r11,%rax), %r15
	vmovdqa	(%r15), %ymm0
	vmovdqa	32(%r15), %ymm0
	leaq	(%r10,%rax), %r15
	vmovdqa	(%r15), %ymm0
	vmovdqa	32(%r15), %ymm0
	leaq	(%r9,%rax), %r15
	vmovdqa	(%r15), %ymm0
	vmovdqa	32(%r15), %ymm0
	leaq	(%r8,%rax), %r15
	vmovdqa	(%r15), %ymm0
	vmovdqa	32(%r15), %ymm0
	movq	-72(%rbp), %r15
	addq	%rax, %r15
	vmovdqa	(%r15), %ymm0
	vmovdqa	32(%r15), %ymm0
	movq	-80(%rbp), %r15
	addq	%rax, %r15
	vmovdqa	(%r15), %ymm0
	vmovdqa	32(%r15), %ymm0
	movq	-88(%rbp), %r15
	addq	%rax, %r15
	vmovdqa	(%r15), %ymm0
	vmovdqa	32(%r15), %ymm0
	leaq	(%rsi,%rax), %r15
	addq	-64(%rbp), %rax
	vmovdqa	(%r15), %ymm0
	vmovdqa	32(%r15), %ymm0
	vmovdqa	(%rax), %ymm0
	vmovdqa	32(%rax), %ymm0
	cmpq	%rdx, -112(%rbp)
	je	.L1559
	movq	%rcx, %rax
.L1561:
	movq	%rax, %rcx
	subq	%rdx, %rcx
	jns	.L1560
	movq	-56(%rbp), %r15
	addq	%r15, %rcx
	jns	.L1560
	addq	%r15, %rcx
	jmp	.L1560
.L1565:
	movq	%rax, %rcx
	.p2align 4,,10
	.p2align 3
.L1559:
#APP
# 249 "mem.cc" 1
	# random loop end (n_chains = $14, payload = $1)
# 0 "" 2
#NO_APP
	addq	$1, -120(%rbp)
	movq	-120(%rbp), %r15
	cmpq	%r15, -136(%rbp)
	jne	.L1562
	salq	$6, %rcx
	vzeroupper
	movq	-64(%rbp), %rax
.L1555:
	addq	%rcx, %rax
	popq	%rbx
	popq	%rdx
	.cfi_remember_state
	.cfi_def_cfa 10, 0
	popq	%r12
	popq	%r13
	popq	%r14
	popq	%r15
	popq	%rbp
	leaq	-8(%rdx), %rsp
	.cfi_def_cfa 7, 8
	ret
.L1563:
	.cfi_restore_state
	movl	$1, %r15d
	xorl	%edx, %edx
	jmp	.L1556
.L1569:
	movq	104(%rdi), %rax
	xorl	%ecx, %ecx
	movq	%rax, -64(%rbp)
	jmp	.L1555
	.cfi_endproc
.LFE246:
	.size	_Z13access_randomILi14ELi1EEP6recordPS1_ll, .-_Z13access_randomILi14ELi1EEP6recordPS1_ll
	.section	.text.unlikely._Z13access_randomILi14ELi1EEP6recordPS1_ll,"axG",@progbits,_Z13access_randomILi14ELi1EEP6recordPS1_ll,comdat
.LCOLDE76:
	.section	.text._Z13access_randomILi14ELi1EEP6recordPS1_ll,"axG",@progbits,_Z13access_randomILi14ELi1EEP6recordPS1_ll,comdat
.LHOTE76:
	.section	.text.unlikely._Z13access_randomILi14ELi0EEP6recordPS1_ll,"axG",@progbits,_Z13access_randomILi14ELi0EEP6recordPS1_ll,comdat
.LCOLDB77:
	.section	.text._Z13access_randomILi14ELi0EEP6recordPS1_ll,"axG",@progbits,_Z13access_randomILi14ELi0EEP6recordPS1_ll,comdat
.LHOTB77:
	.p2align 4,,15
	.weak	_Z13access_randomILi14ELi0EEP6recordPS1_ll
	.type	_Z13access_randomILi14ELi0EEP6recordPS1_ll, @function
_Z13access_randomILi14ELi0EEP6recordPS1_ll:
.LFB249:
	.cfi_startproc
	pushq	%r15
	.cfi_def_cfa_offset 16
	.cfi_offset 15, -16
	movq	%rdi, %rax
	pushq	%r14
	.cfi_def_cfa_offset 24
	.cfi_offset 14, -24
	pushq	%r13
	.cfi_def_cfa_offset 32
	.cfi_offset 13, -32
	pushq	%r12
	.cfi_def_cfa_offset 40
	.cfi_offset 12, -40
	pushq	%rbp
	.cfi_def_cfa_offset 48
	.cfi_offset 6, -48
	pushq	%rbx
	.cfi_def_cfa_offset 56
	.cfi_offset 3, -56
	movq	%rdx, -8(%rsp)
	testq	%rdx, %rdx
	jle	.L1607
	movq	104(%rdi), %rdi
	movq	%rsi, -56(%rsp)
	movq	80(%rax), %rdx
	movq	$0, -24(%rsp)
	movq	88(%rax), %r14
	movq	96(%rax), %r15
	movq	%rdi, -80(%rsp)
	movq	(%rax), %r13
	movq	8(%rax), %r12
	movq	%rdx, -72(%rsp)
	movq	16(%rax), %rbp
	movq	%r14, -64(%rsp)
	movq	24(%rax), %rbx
	movq	%r15, %r14
	movq	32(%rax), %rdi
	leaq	1(%rsi,%rsi), %r15
	movq	40(%rax), %r11
	movq	%r15, -32(%rsp)
	movq	48(%rax), %r10
	movq	56(%rax), %r9
	movq	64(%rax), %r8
	movq	72(%rax), %rcx
	leaq	-1(%rsi), %rax
	movq	%r14, %rsi
	movq	%rax, %rdx
	shrq	$63, %rdx
	addq	%rdx, %rax
	sarq	%rax
	movq	%rax, -16(%rsp)
	addq	%rax, %rax
	movq	%rax, -40(%rsp)
	.p2align 4,,10
	.p2align 3
.L1579:
#APP
# 207 "mem.cc" 1
	# random loop begin (n_chains = $14, payload = $0)
# 0 "" 2
#NO_APP
	xorl	%r14d, %r14d
	cmpq	$0, -16(%rsp)
	jle	.L1580
	xorl	%eax, %eax
	testb	$2, -40(%rsp)
	je	.L1608
	movq	%rcx, -48(%rsp)
	jmp	.L1575
	.p2align 4,,10
	.p2align 3
.L1581:
	leaq	1(%rdx,%r14), %rax
	movq	%rax, %r15
	subq	-56(%rsp), %r15
	js	.L1593
	movq	%r15, %rax
	subq	-56(%rsp), %rax
	cmovs	%r15, %rax
.L1593:
	salq	$6, %rdx
	addq	$2, %r14
	leaq	0(%r13,%rdx), %rcx
	movq	(%rcx), %r15
	leaq	0(%rbp,%rdx), %rcx
	leaq	(%r12,%rdx), %r15
	movq	(%r15), %r15
	movq	(%rcx), %r15
	leaq	(%rdi,%rdx), %rcx
	leaq	(%rbx,%rdx), %r15
	movq	(%r15), %r15
	movq	(%rcx), %r15
	leaq	(%r10,%rdx), %rcx
	leaq	(%r11,%rdx), %r15
	movq	(%r15), %r15
	movq	(%rcx), %r15
	leaq	(%r8,%rdx), %rcx
	leaq	(%r9,%rdx), %r15
	movq	(%r15), %r15
	movq	(%rcx), %r15
	movq	-48(%rsp), %r15
	leaq	(%r15,%rdx), %rcx
	movq	(%rcx), %r15
	movq	-72(%rsp), %r15
	leaq	(%r15,%rdx), %rcx
	movq	(%rcx), %r15
	movq	-64(%rsp), %r15
	leaq	(%r15,%rdx), %rcx
	movq	(%rcx), %r15
	leaq	(%rsi,%rdx), %r15
	addq	-80(%rsp), %rdx
	movq	(%r15), %r15
	movq	(%rdx), %rdx
.L1575:
	leaq	1(%r14,%rax), %rdx
	movq	%rdx, %r15
	subq	-56(%rsp), %r15
	js	.L1574
	movq	%r15, %rcx
	subq	-56(%rsp), %rcx
	movq	%rcx, %rdx
	cmovs	%r15, %rdx
.L1574:
	salq	$6, %rax
	addq	$2, %r14
	leaq	(%r12,%rax), %rcx
	leaq	0(%r13,%rax), %r15
	movq	(%r15), %r15
	movq	(%rcx), %r15
	leaq	(%rbx,%rax), %rcx
	leaq	0(%rbp,%rax), %r15
	movq	(%r15), %r15
	movq	(%rcx), %r15
	leaq	(%r11,%rax), %rcx
	leaq	(%rdi,%rax), %r15
	movq	(%r15), %r15
	movq	(%rcx), %r15
	leaq	(%r9,%rax), %rcx
	leaq	(%r10,%rax), %r15
	movq	(%r15), %r15
	movq	(%rcx), %r15
	leaq	(%r8,%rax), %r15
	movq	-48(%rsp), %rcx
	movq	(%r15), %r15
	leaq	(%rcx,%rax), %r15
	movq	-72(%rsp), %rcx
	movq	(%r15), %r15
	leaq	(%rcx,%rax), %r15
	movq	-64(%rsp), %rcx
	movq	(%r15), %r15
	leaq	(%rcx,%rax), %r15
	leaq	(%rsi,%rax), %rcx
	addq	-80(%rsp), %rax
	movq	(%r15), %r15
	movq	(%rcx), %r15
	movq	(%rax), %rax
	cmpq	-40(%rsp), %r14
	jne	.L1581
	movq	-16(%rsp), %r14
	movq	-48(%rsp), %rcx
	leaq	1(%r14), %r15
	movq	%rdx, %r14
	salq	$6, %r14
.L1573:
	movq	-56(%rsp), %rax
	subq	%rdx, %rax
	leaq	0(%r13,%r14), %rdx
	movq	(%rdx), %rdx
	leaq	(%r12,%r14), %rdx
	movq	(%rdx), %rdx
	leaq	0(%rbp,%r14), %rdx
	movq	(%rdx), %rdx
	leaq	(%rbx,%r14), %rdx
	movq	(%rdx), %rdx
	leaq	(%rdi,%r14), %rdx
	movq	(%rdx), %rdx
	leaq	(%r11,%r14), %rdx
	movq	(%rdx), %rdx
	leaq	(%r10,%r14), %rdx
	movq	(%rdx), %rdx
	leaq	(%r9,%r14), %rdx
	movq	(%rdx), %rdx
	leaq	(%r8,%r14), %rdx
	movq	(%rdx), %rdx
	leaq	(%rcx,%r14), %rdx
	movq	(%rdx), %rdx
	movq	-72(%rsp), %rdx
	addq	%r14, %rdx
	movq	(%rdx), %rdx
	movq	-64(%rsp), %rdx
	addq	%r14, %rdx
	movq	(%rdx), %rdx
	leaq	(%rsi,%r14), %rdx
	addq	-80(%rsp), %r14
	movq	(%rdx), %rdx
	movq	(%r14), %rdx
	cmpq	%r15, -56(%rsp)
	jle	.L1582
	leaq	1(%r15,%r15), %r14
	movq	-32(%rsp), %r15
	subq	%r14, %r15
	andl	$2, %r15d
	jne	.L1578
	movq	%rax, %r15
	subq	%r14, %r15
	js	.L1609
.L1585:
	salq	$6, %rax
	addq	$2, %r14
	leaq	0(%r13,%rax), %rdx
	movq	(%rdx), %rdx
	leaq	(%r12,%rax), %rdx
	movq	(%rdx), %rdx
	leaq	0(%rbp,%rax), %rdx
	movq	(%rdx), %rdx
	leaq	(%rbx,%rax), %rdx
	movq	(%rdx), %rdx
	leaq	(%rdi,%rax), %rdx
	movq	(%rdx), %rdx
	leaq	(%r11,%rax), %rdx
	movq	(%rdx), %rdx
	leaq	(%r10,%rax), %rdx
	movq	(%rdx), %rdx
	leaq	(%r9,%rax), %rdx
	movq	(%rdx), %rdx
	leaq	(%r8,%rax), %rdx
	movq	(%rdx), %rdx
	leaq	(%rcx,%rax), %rdx
	movq	(%rdx), %rdx
	movq	-72(%rsp), %rdx
	addq	%rax, %rdx
	movq	(%rdx), %rdx
	movq	-64(%rsp), %rdx
	addq	%rax, %rdx
	movq	(%rdx), %rdx
	leaq	(%rsi,%rax), %rdx
	addq	-80(%rsp), %rax
	movq	(%rdx), %rdx
	movq	(%rax), %rax
	movq	%r15, %rax
	jmp	.L1578
	.p2align 4,,10
	.p2align 3
.L1577:
	salq	$6, %rax
	addq	$2, %r14
	leaq	0(%r13,%rax), %r15
	movq	(%r15), %r15
	leaq	(%r12,%rax), %r15
	movq	(%r15), %r15
	leaq	0(%rbp,%rax), %r15
	movq	(%r15), %r15
	leaq	(%rbx,%rax), %r15
	movq	(%r15), %r15
	leaq	(%rdi,%rax), %r15
	movq	(%r15), %r15
	leaq	(%r11,%rax), %r15
	movq	(%r15), %r15
	leaq	(%r10,%rax), %r15
	movq	(%r15), %r15
	leaq	(%r9,%rax), %r15
	movq	(%r15), %r15
	leaq	(%r8,%rax), %r15
	movq	(%r15), %r15
	leaq	(%rcx,%rax), %r15
	movq	(%r15), %r15
	movq	-72(%rsp), %r15
	addq	%rax, %r15
	movq	(%r15), %r15
	movq	-64(%rsp), %r15
	addq	%rax, %r15
	movq	(%r15), %r15
	leaq	(%rsi,%rax), %r15
	addq	-80(%rsp), %rax
	movq	(%r15), %r15
	movq	(%rax), %rax
	cmpq	%r14, -32(%rsp)
	je	.L1576
	movq	%rdx, %rax
	subq	%r14, %rax
	js	.L1610
.L1588:
	salq	$6, %rdx
	addq	$2, %r14
	leaq	0(%r13,%rdx), %r15
	movq	(%r15), %r15
	leaq	(%r12,%rdx), %r15
	movq	(%r15), %r15
	leaq	0(%rbp,%rdx), %r15
	movq	(%r15), %r15
	leaq	(%rbx,%rdx), %r15
	movq	(%r15), %r15
	leaq	(%rdi,%rdx), %r15
	movq	(%r15), %r15
	leaq	(%r11,%rdx), %r15
	movq	(%r15), %r15
	leaq	(%r10,%rdx), %r15
	movq	(%r15), %r15
	leaq	(%r9,%rdx), %r15
	movq	(%r15), %r15
	leaq	(%r8,%rdx), %r15
	movq	(%r15), %r15
	leaq	(%rcx,%rdx), %r15
	movq	(%r15), %r15
	movq	-72(%rsp), %r15
	addq	%rdx, %r15
	movq	(%r15), %r15
	movq	-64(%rsp), %r15
	addq	%rdx, %r15
	movq	(%r15), %r15
	leaq	(%rsi,%rdx), %r15
	addq	-80(%rsp), %rdx
	movq	(%r15), %r15
	movq	(%rdx), %rdx
.L1578:
	movq	%rax, %rdx
	subq	%r14, %rdx
	jns	.L1577
	movq	-56(%rsp), %r15
	addq	%r15, %rdx
	jns	.L1577
	addq	%r15, %rdx
	jmp	.L1577
	.p2align 4,,10
	.p2align 3
.L1610:
	movq	-56(%rsp), %r15
	addq	%r15, %rax
	jns	.L1588
	addq	%r15, %rax
	jmp	.L1588
	.p2align 4,,10
	.p2align 3
.L1582:
	movq	%rax, %rdx
	.p2align 4,,10
	.p2align 3
.L1576:
#APP
# 249 "mem.cc" 1
	# random loop end (n_chains = $14, payload = $0)
# 0 "" 2
#NO_APP
	addq	$1, -24(%rsp)
	movq	-24(%rsp), %r14
	cmpq	%r14, -8(%rsp)
	jne	.L1579
	movq	-80(%rsp), %rax
	salq	$6, %rdx
	popq	%rbx
	.cfi_remember_state
	.cfi_def_cfa_offset 48
	popq	%rbp
	.cfi_def_cfa_offset 40
	popq	%r12
	.cfi_def_cfa_offset 32
	addq	%rdx, %rax
	popq	%r13
	.cfi_def_cfa_offset 24
	popq	%r14
	.cfi_def_cfa_offset 16
	popq	%r15
	.cfi_def_cfa_offset 8
	ret
	.p2align 4,,10
	.p2align 3
.L1608:
	.cfi_restore_state
	movq	-56(%rsp), %r14
	movl	$1, %eax
	movq	%rax, %rdx
	subq	%r14, %rdx
	js	.L1590
	movq	%rdx, %rax
	subq	%r14, %rax
	cmovs	%rdx, %rax
.L1590:
	movq	-72(%rsp), %r15
	movq	%rcx, -48(%rsp)
	movq	0(%r13), %rdx
	movq	-80(%rsp), %r14
	movq	(%r12), %rdx
	movq	0(%rbp), %rdx
	movq	(%rbx), %rdx
	movq	(%rdi), %rdx
	movq	(%r11), %rdx
	movq	(%r10), %rdx
	movq	(%r9), %rdx
	movq	(%r8), %rdx
	movq	(%rcx), %rdx
	movq	(%r15), %rdx
	movq	-64(%rsp), %rdx
	movq	(%rdx), %rdx
	movq	(%rsi), %rdx
	movq	(%r14), %rdx
	movl	$2, %r14d
	jmp	.L1575
	.p2align 4,,10
	.p2align 3
.L1609:
	movq	-56(%rsp), %rdx
	addq	%rdx, %r15
	jns	.L1585
	addq	%rdx, %r15
	jmp	.L1585
	.p2align 4,,10
	.p2align 3
.L1580:
	movl	$1, %r15d
	xorl	%edx, %edx
	jmp	.L1573
.L1607:
	movq	104(%rdi), %rax
	xorl	%edx, %edx
	movq	%rax, -80(%rsp)
	popq	%rbx
	.cfi_def_cfa_offset 48
	addq	%rdx, %rax
	popq	%rbp
	.cfi_def_cfa_offset 40
	popq	%r12
	.cfi_def_cfa_offset 32
	popq	%r13
	.cfi_def_cfa_offset 24
	popq	%r14
	.cfi_def_cfa_offset 16
	popq	%r15
	.cfi_def_cfa_offset 8
	ret
	.cfi_endproc
.LFE249:
	.size	_Z13access_randomILi14ELi0EEP6recordPS1_ll, .-_Z13access_randomILi14ELi0EEP6recordPS1_ll
	.section	.text.unlikely._Z13access_randomILi14ELi0EEP6recordPS1_ll,"axG",@progbits,_Z13access_randomILi14ELi0EEP6recordPS1_ll,comdat
.LCOLDE77:
	.section	.text._Z13access_randomILi14ELi0EEP6recordPS1_ll,"axG",@progbits,_Z13access_randomILi14ELi0EEP6recordPS1_ll,comdat
.LHOTE77:
	.section	.text.unlikely._Z13access_randomILi15ELi1EEP6recordPS1_ll,"axG",@progbits,_Z13access_randomILi15ELi1EEP6recordPS1_ll,comdat
.LCOLDB78:
	.section	.text._Z13access_randomILi15ELi1EEP6recordPS1_ll,"axG",@progbits,_Z13access_randomILi15ELi1EEP6recordPS1_ll,comdat
.LHOTB78:
	.p2align 4,,15
	.weak	_Z13access_randomILi15ELi1EEP6recordPS1_ll
	.type	_Z13access_randomILi15ELi1EEP6recordPS1_ll, @function
_Z13access_randomILi15ELi1EEP6recordPS1_ll:
.LFB252:
	.cfi_startproc
	leaq	8(%rsp), %r10
	.cfi_def_cfa 10, 0
	andq	$-32, %rsp
	movq	%rdi, %rax
	pushq	-8(%r10)
	pushq	%rbp
	.cfi_escape 0x10,0x6,0x2,0x76,0
	movq	%rsp, %rbp
	pushq	%r15
	pushq	%r14
	pushq	%r13
	pushq	%r12
	pushq	%r10
	.cfi_escape 0xf,0x3,0x76,0x58,0x6
	.cfi_escape 0x10,0xf,0x2,0x76,0x78
	.cfi_escape 0x10,0xe,0x2,0x76,0x70
	.cfi_escape 0x10,0xd,0x2,0x76,0x68
	.cfi_escape 0x10,0xc,0x2,0x76,0x60
	pushq	%rbx
	.cfi_escape 0x10,0x3,0x2,0x76,0x50
	movq	%rdx, -144(%rbp)
	testq	%rdx, %rdx
	jle	.L1627
	movq	72(%rax), %rcx
	movq	%rsi, -56(%rbp)
	movq	80(%rax), %rdx
	movq	$0, -128(%rbp)
	movq	112(%rdi), %rdi
	movq	88(%rax), %r15
	movq	%rcx, -72(%rbp)
	movq	96(%rax), %rcx
	movq	(%rax), %r14
	movq	%rdx, -80(%rbp)
	movq	%rdi, -64(%rbp)
	movq	8(%rax), %r13
	movq	16(%rax), %r12
	movq	%r15, -88(%rbp)
	movq	%rcx, -96(%rbp)
	leaq	-1(%rsi), %rcx
	movq	24(%rax), %rbx
	movq	%rcx, %rdx
	movq	32(%rax), %rdi
	movq	40(%rax), %r11
	shrq	$63, %rdx
	movq	48(%rax), %r10
	addq	%rdx, %rcx
	movq	56(%rax), %r9
	sarq	%rcx
	movq	64(%rax), %r8
	movq	%rcx, -136(%rbp)
	addq	%rcx, %rcx
	movq	104(%rax), %rax
	movq	%rcx, -112(%rbp)
	movq	%rax, %r15
	leaq	1(%rsi,%rsi), %rax
	movq	%r15, %rsi
	movq	%rax, -120(%rbp)
	.p2align 4,,10
	.p2align 3
.L1620:
#APP
# 207 "mem.cc" 1
	# random loop begin (n_chains = $15, payload = $1)
# 0 "" 2
#NO_APP
	xorl	%ecx, %ecx
	cmpq	$0, -136(%rbp)
	jle	.L1621
	xorl	%eax, %eax
	movq	%rsi, -104(%rbp)
	jmp	.L1616
	.p2align 4,,10
	.p2align 3
.L1622:
	movq	%rdx, %rax
.L1616:
	leaq	1(%rcx,%rax), %rdx
	movq	%rdx, %r15
	subq	-56(%rbp), %r15
	js	.L1615
	movq	%r15, %rsi
	subq	-56(%rbp), %rsi
	movq	%rsi, %rdx
	cmovs	%r15, %rdx
.L1615:
	salq	$6, %rax
	addq	$2, %rcx
	leaq	(%r14,%rax), %r15
	leaq	0(%r13,%rax), %rsi
	vmovdqa	(%r15), %ymm0
	vmovdqa	32(%r15), %ymm0
	leaq	(%r12,%rax), %r15
	vmovdqa	(%rsi), %ymm0
	vmovdqa	32(%rsi), %ymm0
	leaq	(%rbx,%rax), %rsi
	vmovdqa	(%r15), %ymm0
	vmovdqa	32(%r15), %ymm0
	leaq	(%rdi,%rax), %r15
	vmovdqa	(%rsi), %ymm0
	vmovdqa	32(%rsi), %ymm0
	leaq	(%r11,%rax), %rsi
	vmovdqa	(%r15), %ymm0
	vmovdqa	32(%r15), %ymm0
	leaq	(%r10,%rax), %r15
	vmovdqa	(%rsi), %ymm0
	vmovdqa	32(%rsi), %ymm0
	leaq	(%r9,%rax), %rsi
	vmovdqa	(%r15), %ymm0
	vmovdqa	32(%r15), %ymm0
	leaq	(%r8,%rax), %r15
	vmovdqa	(%rsi), %ymm0
	vmovdqa	32(%rsi), %ymm0
	movq	-72(%rbp), %rsi
	vmovdqa	(%r15), %ymm0
	vmovdqa	32(%r15), %ymm0
	leaq	(%rsi,%rax), %r15
	movq	-80(%rbp), %rsi
	vmovdqa	(%r15), %ymm0
	vmovdqa	32(%r15), %ymm0
	leaq	(%rsi,%rax), %r15
	movq	-88(%rbp), %rsi
	vmovdqa	(%r15), %ymm0
	vmovdqa	32(%r15), %ymm0
	leaq	(%rsi,%rax), %r15
	movq	-96(%rbp), %rsi
	vmovdqa	(%r15), %ymm0
	vmovdqa	32(%r15), %ymm0
	leaq	(%rsi,%rax), %r15
	movq	-104(%rbp), %rsi
	vmovdqa	(%r15), %ymm0
	vmovdqa	32(%r15), %ymm0
	leaq	(%rsi,%rax), %r15
	vmovdqa	(%r15), %ymm0
	vmovdqa	32(%r15), %ymm0
	addq	-64(%rbp), %rax
	vmovdqa	(%rax), %ymm0
	vmovdqa	32(%rax), %ymm0
	cmpq	-112(%rbp), %rcx
	jne	.L1622
	movq	-136(%rbp), %r15
	movq	%rdx, %rcx
	salq	$6, %rcx
	leaq	1(%r15), %r15
.L1614:
	movq	-56(%rbp), %rax
	subq	%rdx, %rax
	leaq	(%r14,%rcx), %rdx
	vmovdqa	(%rdx), %ymm0
	vmovdqa	32(%rdx), %ymm0
	leaq	0(%r13,%rcx), %rdx
	vmovdqa	(%rdx), %ymm0
	vmovdqa	32(%rdx), %ymm0
	leaq	(%r12,%rcx), %rdx
	vmovdqa	(%rdx), %ymm0
	vmovdqa	32(%rdx), %ymm0
	leaq	(%rbx,%rcx), %rdx
	vmovdqa	(%rdx), %ymm0
	vmovdqa	32(%rdx), %ymm0
	leaq	(%rdi,%rcx), %rdx
	vmovdqa	(%rdx), %ymm0
	vmovdqa	32(%rdx), %ymm0
	leaq	(%r11,%rcx), %rdx
	vmovdqa	(%rdx), %ymm0
	vmovdqa	32(%rdx), %ymm0
	leaq	(%r10,%rcx), %rdx
	vmovdqa	(%rdx), %ymm0
	vmovdqa	32(%rdx), %ymm0
	leaq	(%r9,%rcx), %rdx
	vmovdqa	(%rdx), %ymm0
	vmovdqa	32(%rdx), %ymm0
	leaq	(%r8,%rcx), %rdx
	vmovdqa	(%rdx), %ymm0
	vmovdqa	32(%rdx), %ymm0
	movq	-72(%rbp), %rdx
	addq	%rcx, %rdx
	vmovdqa	(%rdx), %ymm0
	vmovdqa	32(%rdx), %ymm0
	movq	-80(%rbp), %rdx
	addq	%rcx, %rdx
	vmovdqa	(%rdx), %ymm0
	vmovdqa	32(%rdx), %ymm0
	movq	-88(%rbp), %rdx
	addq	%rcx, %rdx
	vmovdqa	(%rdx), %ymm0
	vmovdqa	32(%rdx), %ymm0
	movq	-96(%rbp), %rdx
	addq	%rcx, %rdx
	vmovdqa	(%rdx), %ymm0
	vmovdqa	32(%rdx), %ymm0
	leaq	(%rsi,%rcx), %rdx
	vmovdqa	(%rdx), %ymm0
	vmovdqa	32(%rdx), %ymm0
	addq	-64(%rbp), %rcx
	vmovdqa	(%rcx), %ymm0
	vmovdqa	32(%rcx), %ymm0
	cmpq	%r15, -56(%rbp)
	jle	.L1623
	leaq	1(%r15,%r15), %rdx
	jmp	.L1619
	.p2align 4,,10
	.p2align 3
.L1618:
	salq	$6, %rax
	addq	$2, %rdx
	leaq	(%r14,%rax), %r15
	vmovdqa	(%r15), %ymm0
	vmovdqa	32(%r15), %ymm0
	leaq	0(%r13,%rax), %r15
	vmovdqa	(%r15), %ymm0
	vmovdqa	32(%r15), %ymm0
	leaq	(%r12,%rax), %r15
	vmovdqa	(%r15), %ymm0
	vmovdqa	32(%r15), %ymm0
	leaq	(%rbx,%rax), %r15
	vmovdqa	(%r15), %ymm0
	vmovdqa	32(%r15), %ymm0
	leaq	(%rdi,%rax), %r15
	vmovdqa	(%r15), %ymm0
	vmovdqa	32(%r15), %ymm0
	leaq	(%r11,%rax), %r15
	vmovdqa	(%r15), %ymm0
	vmovdqa	32(%r15), %ymm0
	leaq	(%r10,%rax), %r15
	vmovdqa	(%r15), %ymm0
	vmovdqa	32(%r15), %ymm0
	leaq	(%r9,%rax), %r15
	vmovdqa	(%r15), %ymm0
	vmovdqa	32(%r15), %ymm0
	leaq	(%r8,%rax), %r15
	vmovdqa	(%r15), %ymm0
	vmovdqa	32(%r15), %ymm0
	movq	-72(%rbp), %r15
	addq	%rax, %r15
	vmovdqa	(%r15), %ymm0
	vmovdqa	32(%r15), %ymm0
	movq	-80(%rbp), %r15
	addq	%rax, %r15
	vmovdqa	(%r15), %ymm0
	vmovdqa	32(%r15), %ymm0
	movq	-88(%rbp), %r15
	addq	%rax, %r15
	vmovdqa	(%r15), %ymm0
	vmovdqa	32(%r15), %ymm0
	movq	-96(%rbp), %r15
	addq	%rax, %r15
	vmovdqa	(%r15), %ymm0
	vmovdqa	32(%r15), %ymm0
	leaq	(%rsi,%rax), %r15
	vmovdqa	(%r15), %ymm0
	vmovdqa	32(%r15), %ymm0
	addq	-64(%rbp), %rax
	vmovdqa	(%rax), %ymm0
	vmovdqa	32(%rax), %ymm0
	cmpq	%rdx, -120(%rbp)
	je	.L1617
	movq	%rcx, %rax
.L1619:
	movq	%rax, %rcx
	subq	%rdx, %rcx
	jns	.L1618
	movq	-56(%rbp), %r15
	addq	%r15, %rcx
	jns	.L1618
	addq	%r15, %rcx
	jmp	.L1618
.L1623:
	movq	%rax, %rcx
	.p2align 4,,10
	.p2align 3
.L1617:
#APP
# 249 "mem.cc" 1
	# random loop end (n_chains = $15, payload = $1)
# 0 "" 2
#NO_APP
	addq	$1, -128(%rbp)
	movq	-128(%rbp), %r15
	cmpq	%r15, -144(%rbp)
	jne	.L1620
	salq	$6, %rcx
	vzeroupper
	movq	-64(%rbp), %rax
.L1613:
	addq	%rcx, %rax
	popq	%rbx
	popq	%rdx
	.cfi_remember_state
	.cfi_def_cfa 10, 0
	popq	%r12
	popq	%r13
	popq	%r14
	popq	%r15
	popq	%rbp
	leaq	-8(%rdx), %rsp
	.cfi_def_cfa 7, 8
	ret
.L1621:
	.cfi_restore_state
	movl	$1, %r15d
	xorl	%edx, %edx
	jmp	.L1614
.L1627:
	movq	112(%rdi), %rax
	xorl	%ecx, %ecx
	movq	%rax, -64(%rbp)
	jmp	.L1613
	.cfi_endproc
.LFE252:
	.size	_Z13access_randomILi15ELi1EEP6recordPS1_ll, .-_Z13access_randomILi15ELi1EEP6recordPS1_ll
	.section	.text.unlikely._Z13access_randomILi15ELi1EEP6recordPS1_ll,"axG",@progbits,_Z13access_randomILi15ELi1EEP6recordPS1_ll,comdat
.LCOLDE78:
	.section	.text._Z13access_randomILi15ELi1EEP6recordPS1_ll,"axG",@progbits,_Z13access_randomILi15ELi1EEP6recordPS1_ll,comdat
.LHOTE78:
	.section	.text.unlikely._Z13access_randomILi15ELi0EEP6recordPS1_ll,"axG",@progbits,_Z13access_randomILi15ELi0EEP6recordPS1_ll,comdat
.LCOLDB79:
	.section	.text._Z13access_randomILi15ELi0EEP6recordPS1_ll,"axG",@progbits,_Z13access_randomILi15ELi0EEP6recordPS1_ll,comdat
.LHOTB79:
	.p2align 4,,15
	.weak	_Z13access_randomILi15ELi0EEP6recordPS1_ll
	.type	_Z13access_randomILi15ELi0EEP6recordPS1_ll, @function
_Z13access_randomILi15ELi0EEP6recordPS1_ll:
.LFB255:
	.cfi_startproc
	pushq	%r15
	.cfi_def_cfa_offset 16
	.cfi_offset 15, -16
	movq	%rdi, %rax
	pushq	%r14
	.cfi_def_cfa_offset 24
	.cfi_offset 14, -24
	pushq	%r13
	.cfi_def_cfa_offset 32
	.cfi_offset 13, -32
	pushq	%r12
	.cfi_def_cfa_offset 40
	.cfi_offset 12, -40
	pushq	%rbp
	.cfi_def_cfa_offset 48
	.cfi_offset 6, -48
	pushq	%rbx
	.cfi_def_cfa_offset 56
	.cfi_offset 3, -56
	movq	%rdx, -8(%rsp)
	testq	%rdx, %rdx
	jle	.L1655
	movq	96(%rax), %r15
	movq	%rsi, -56(%rsp)
	movq	80(%rax), %rdx
	movq	$0, -24(%rsp)
	movq	112(%rdi), %rdi
	movq	88(%rax), %r14
	movq	%r15, -64(%rsp)
	leaq	-1(%rsi), %r15
	movq	(%rax), %r13
	movq	8(%rax), %r12
	movq	%rdx, -80(%rsp)
	movq	%r15, %rdx
	movq	%rdi, -88(%rsp)
	movq	16(%rax), %rbp
	shrq	$63, %rdx
	movq	24(%rax), %rbx
	addq	%rdx, %r15
	movq	%r14, -72(%rsp)
	movq	32(%rax), %rdi
	sarq	%r15
	movq	40(%rax), %r11
	movq	%r15, -16(%rsp)
	addq	%r15, %r15
	movq	48(%rax), %r10
	movq	%r15, -40(%rsp)
	movq	56(%rax), %r9
	movq	64(%rax), %r8
	movq	72(%rax), %rcx
	movq	104(%rax), %rax
	movq	%rax, %r14
	leaq	1(%rsi,%rsi), %rax
	movq	%r14, %rsi
	movq	%rax, -32(%rsp)
	.p2align 4,,10
	.p2align 3
.L1637:
#APP
# 207 "mem.cc" 1
	# random loop begin (n_chains = $15, payload = $0)
# 0 "" 2
#NO_APP
	xorl	%r14d, %r14d
	cmpq	$0, -16(%rsp)
	jle	.L1638
	xorl	%eax, %eax
	movq	%rcx, -48(%rsp)
	jmp	.L1633
	.p2align 4,,10
	.p2align 3
.L1639:
	movq	%rdx, %rax
.L1633:
	leaq	1(%r14,%rax), %rdx
	movq	%rdx, %r15
	subq	-56(%rsp), %r15
	js	.L1632
	movq	%r15, %rcx
	subq	-56(%rsp), %rcx
	movq	%rcx, %rdx
	cmovs	%r15, %rdx
.L1632:
	salq	$6, %rax
	addq	$2, %r14
	leaq	(%r12,%rax), %rcx
	leaq	0(%r13,%rax), %r15
	movq	(%r15), %r15
	movq	(%rcx), %r15
	leaq	(%rbx,%rax), %rcx
	leaq	0(%rbp,%rax), %r15
	movq	(%r15), %r15
	movq	(%rcx), %r15
	leaq	(%r11,%rax), %rcx
	leaq	(%rdi,%rax), %r15
	movq	(%r15), %r15
	movq	(%rcx), %r15
	leaq	(%r9,%rax), %rcx
	leaq	(%r10,%rax), %r15
	movq	(%r15), %r15
	movq	(%rcx), %r15
	leaq	(%r8,%rax), %r15
	movq	-48(%rsp), %rcx
	movq	(%r15), %r15
	leaq	(%rcx,%rax), %r15
	movq	-80(%rsp), %rcx
	movq	(%r15), %r15
	leaq	(%rcx,%rax), %r15
	movq	-72(%rsp), %rcx
	movq	(%r15), %r15
	leaq	(%rcx,%rax), %r15
	movq	-64(%rsp), %rcx
	movq	(%r15), %r15
	leaq	(%rcx,%rax), %r15
	leaq	(%rsi,%rax), %rcx
	addq	-88(%rsp), %rax
	movq	(%r15), %r15
	movq	(%rcx), %r15
	movq	(%rax), %rax
	cmpq	-40(%rsp), %r14
	jne	.L1639
	movq	-16(%rsp), %r15
	movq	%rdx, %r14
	movq	-48(%rsp), %rcx
	salq	$6, %r14
	leaq	1(%r15), %r15
.L1631:
	movq	-56(%rsp), %rax
	subq	%rdx, %rax
	leaq	0(%r13,%r14), %rdx
	movq	(%rdx), %rdx
	leaq	(%r12,%r14), %rdx
	movq	(%rdx), %rdx
	leaq	0(%rbp,%r14), %rdx
	movq	(%rdx), %rdx
	leaq	(%rbx,%r14), %rdx
	movq	(%rdx), %rdx
	leaq	(%rdi,%r14), %rdx
	movq	(%rdx), %rdx
	leaq	(%r11,%r14), %rdx
	movq	(%rdx), %rdx
	leaq	(%r10,%r14), %rdx
	movq	(%rdx), %rdx
	leaq	(%r9,%r14), %rdx
	movq	(%rdx), %rdx
	leaq	(%r8,%r14), %rdx
	movq	(%rdx), %rdx
	leaq	(%rcx,%r14), %rdx
	movq	(%rdx), %rdx
	movq	-80(%rsp), %rdx
	addq	%r14, %rdx
	movq	(%rdx), %rdx
	movq	-72(%rsp), %rdx
	addq	%r14, %rdx
	movq	(%rdx), %rdx
	movq	-64(%rsp), %rdx
	addq	%r14, %rdx
	movq	(%rdx), %rdx
	leaq	(%rsi,%r14), %rdx
	addq	-88(%rsp), %r14
	movq	(%rdx), %rdx
	movq	(%r14), %rdx
	cmpq	%r15, -56(%rsp)
	jle	.L1640
	leaq	1(%r15,%r15), %r14
	movq	-32(%rsp), %r15
	subq	%r14, %r15
	andl	$2, %r15d
	jne	.L1636
	movq	%rax, %r15
	subq	%r14, %r15
	js	.L1656
.L1643:
	salq	$6, %rax
	addq	$2, %r14
	leaq	0(%r13,%rax), %rdx
	movq	(%rdx), %rdx
	leaq	(%r12,%rax), %rdx
	movq	(%rdx), %rdx
	leaq	0(%rbp,%rax), %rdx
	movq	(%rdx), %rdx
	leaq	(%rbx,%rax), %rdx
	movq	(%rdx), %rdx
	leaq	(%rdi,%rax), %rdx
	movq	(%rdx), %rdx
	leaq	(%r11,%rax), %rdx
	movq	(%rdx), %rdx
	leaq	(%r10,%rax), %rdx
	movq	(%rdx), %rdx
	leaq	(%r9,%rax), %rdx
	movq	(%rdx), %rdx
	leaq	(%r8,%rax), %rdx
	movq	(%rdx), %rdx
	leaq	(%rcx,%rax), %rdx
	movq	(%rdx), %rdx
	movq	-80(%rsp), %rdx
	addq	%rax, %rdx
	movq	(%rdx), %rdx
	movq	-72(%rsp), %rdx
	addq	%rax, %rdx
	movq	(%rdx), %rdx
	movq	-64(%rsp), %rdx
	addq	%rax, %rdx
	movq	(%rdx), %rdx
	leaq	(%rsi,%rax), %rdx
	addq	-88(%rsp), %rax
	movq	(%rdx), %rdx
	movq	(%rax), %rax
	movq	%r15, %rax
	jmp	.L1636
	.p2align 4,,10
	.p2align 3
.L1635:
	salq	$6, %rax
	addq	$2, %r14
	leaq	0(%r13,%rax), %r15
	movq	(%r15), %r15
	leaq	(%r12,%rax), %r15
	movq	(%r15), %r15
	leaq	0(%rbp,%rax), %r15
	movq	(%r15), %r15
	leaq	(%rbx,%rax), %r15
	movq	(%r15), %r15
	leaq	(%rdi,%rax), %r15
	movq	(%r15), %r15
	leaq	(%r11,%rax), %r15
	movq	(%r15), %r15
	leaq	(%r10,%rax), %r15
	movq	(%r15), %r15
	leaq	(%r9,%rax), %r15
	movq	(%r15), %r15
	leaq	(%r8,%rax), %r15
	movq	(%r15), %r15
	leaq	(%rcx,%rax), %r15
	movq	(%r15), %r15
	movq	-80(%rsp), %r15
	addq	%rax, %r15
	movq	(%r15), %r15
	movq	-72(%rsp), %r15
	addq	%rax, %r15
	movq	(%r15), %r15
	movq	-64(%rsp), %r15
	addq	%rax, %r15
	movq	(%r15), %r15
	leaq	(%rsi,%rax), %r15
	addq	-88(%rsp), %rax
	movq	(%r15), %r15
	movq	(%rax), %rax
	cmpq	%r14, -32(%rsp)
	je	.L1634
	movq	%rdx, %rax
	subq	%r14, %rax
	js	.L1657
.L1646:
	salq	$6, %rdx
	addq	$2, %r14
	leaq	0(%r13,%rdx), %r15
	movq	(%r15), %r15
	leaq	(%r12,%rdx), %r15
	movq	(%r15), %r15
	leaq	0(%rbp,%rdx), %r15
	movq	(%r15), %r15
	leaq	(%rbx,%rdx), %r15
	movq	(%r15), %r15
	leaq	(%rdi,%rdx), %r15
	movq	(%r15), %r15
	leaq	(%r11,%rdx), %r15
	movq	(%r15), %r15
	leaq	(%r10,%rdx), %r15
	movq	(%r15), %r15
	leaq	(%r9,%rdx), %r15
	movq	(%r15), %r15
	leaq	(%r8,%rdx), %r15
	movq	(%r15), %r15
	leaq	(%rcx,%rdx), %r15
	movq	(%r15), %r15
	movq	-80(%rsp), %r15
	addq	%rdx, %r15
	movq	(%r15), %r15
	movq	-72(%rsp), %r15
	addq	%rdx, %r15
	movq	(%r15), %r15
	movq	-64(%rsp), %r15
	addq	%rdx, %r15
	movq	(%r15), %r15
	leaq	(%rsi,%rdx), %r15
	addq	-88(%rsp), %rdx
	movq	(%r15), %r15
	movq	(%rdx), %rdx
.L1636:
	movq	%rax, %rdx
	subq	%r14, %rdx
	jns	.L1635
	movq	-56(%rsp), %r15
	addq	%r15, %rdx
	jns	.L1635
	addq	%r15, %rdx
	jmp	.L1635
	.p2align 4,,10
	.p2align 3
.L1657:
	movq	-56(%rsp), %r15
	addq	%r15, %rax
	jns	.L1646
	addq	%r15, %rax
	jmp	.L1646
.L1640:
	movq	%rax, %rdx
	.p2align 4,,10
	.p2align 3
.L1634:
#APP
# 249 "mem.cc" 1
	# random loop end (n_chains = $15, payload = $0)
# 0 "" 2
#NO_APP
	addq	$1, -24(%rsp)
	movq	-24(%rsp), %r14
	cmpq	%r14, -8(%rsp)
	jne	.L1637
	movq	-88(%rsp), %rax
	salq	$6, %rdx
	popq	%rbx
	.cfi_remember_state
	.cfi_def_cfa_offset 48
	popq	%rbp
	.cfi_def_cfa_offset 40
	popq	%r12
	.cfi_def_cfa_offset 32
	addq	%rdx, %rax
	popq	%r13
	.cfi_def_cfa_offset 24
	popq	%r14
	.cfi_def_cfa_offset 16
	popq	%r15
	.cfi_def_cfa_offset 8
	ret
	.p2align 4,,10
	.p2align 3
.L1656:
	.cfi_restore_state
	movq	-56(%rsp), %rdx
	addq	%rdx, %r15
	jns	.L1643
	addq	%rdx, %r15
	jmp	.L1643
.L1638:
	movl	$1, %r15d
	xorl	%edx, %edx
	jmp	.L1631
.L1655:
	movq	112(%rdi), %rax
	xorl	%edx, %edx
	movq	%rax, -88(%rsp)
	popq	%rbx
	.cfi_def_cfa_offset 48
	addq	%rdx, %rax
	popq	%rbp
	.cfi_def_cfa_offset 40
	popq	%r12
	.cfi_def_cfa_offset 32
	popq	%r13
	.cfi_def_cfa_offset 24
	popq	%r14
	.cfi_def_cfa_offset 16
	popq	%r15
	.cfi_def_cfa_offset 8
	ret
	.cfi_endproc
.LFE255:
	.size	_Z13access_randomILi15ELi0EEP6recordPS1_ll, .-_Z13access_randomILi15ELi0EEP6recordPS1_ll
	.section	.text.unlikely._Z13access_randomILi15ELi0EEP6recordPS1_ll,"axG",@progbits,_Z13access_randomILi15ELi0EEP6recordPS1_ll,comdat
.LCOLDE79:
	.section	.text._Z13access_randomILi15ELi0EEP6recordPS1_ll,"axG",@progbits,_Z13access_randomILi15ELi0EEP6recordPS1_ll,comdat
.LHOTE79:
	.section	.text.unlikely._Z13access_randomILi16ELi1EEP6recordPS1_ll,"axG",@progbits,_Z13access_randomILi16ELi1EEP6recordPS1_ll,comdat
.LCOLDB80:
	.section	.text._Z13access_randomILi16ELi1EEP6recordPS1_ll,"axG",@progbits,_Z13access_randomILi16ELi1EEP6recordPS1_ll,comdat
.LHOTB80:
	.p2align 4,,15
	.weak	_Z13access_randomILi16ELi1EEP6recordPS1_ll
	.type	_Z13access_randomILi16ELi1EEP6recordPS1_ll, @function
_Z13access_randomILi16ELi1EEP6recordPS1_ll:
.LFB258:
	.cfi_startproc
	leaq	8(%rsp), %r10
	.cfi_def_cfa 10, 0
	andq	$-32, %rsp
	movq	%rdi, %rax
	pushq	-8(%r10)
	pushq	%rbp
	.cfi_escape 0x10,0x6,0x2,0x76,0
	movq	%rsp, %rbp
	pushq	%r15
	pushq	%r14
	pushq	%r13
	pushq	%r12
	pushq	%r10
	.cfi_escape 0xf,0x3,0x76,0x58,0x6
	.cfi_escape 0x10,0xf,0x2,0x76,0x78
	.cfi_escape 0x10,0xe,0x2,0x76,0x70
	.cfi_escape 0x10,0xd,0x2,0x76,0x68
	.cfi_escape 0x10,0xc,0x2,0x76,0x60
	pushq	%rbx
	subq	$8, %rsp
	.cfi_escape 0x10,0x3,0x2,0x76,0x50
	movq	%rdx, -152(%rbp)
	testq	%rdx, %rdx
	jle	.L1674
	movq	72(%rax), %rcx
	movq	%rsi, -64(%rbp)
	movq	80(%rax), %rdx
	movq	$0, -136(%rbp)
	movq	120(%rdi), %rdi
	movq	88(%rax), %r15
	movq	%rcx, -72(%rbp)
	movq	96(%rax), %rcx
	movq	%rdx, -80(%rbp)
	movq	104(%rax), %rdx
	movq	%rdi, -56(%rbp)
	movq	(%rax), %r14
	movq	8(%rax), %r13
	movq	%r15, -88(%rbp)
	movq	%rcx, -96(%rbp)
	leaq	-1(%rsi), %rcx
	movq	16(%rax), %r12
	movq	24(%rax), %rbx
	movq	%rdx, -104(%rbp)
	movq	%rcx, %rdx
	movq	32(%rax), %rdi
	shrq	$63, %rdx
	movq	40(%rax), %r11
	addq	%rdx, %rcx
	movq	48(%rax), %r10
	sarq	%rcx
	movq	56(%rax), %r9
	movq	%rcx, -144(%rbp)
	addq	%rcx, %rcx
	movq	64(%rax), %r8
	movq	%rcx, -120(%rbp)
	movq	112(%rax), %rax
	movq	%rax, %r15
	leaq	1(%rsi,%rsi), %rax
	movq	%r15, %rsi
	movq	%rax, -128(%rbp)
	.p2align 4,,10
	.p2align 3
.L1667:
#APP
# 207 "mem.cc" 1
	# random loop begin (n_chains = $16, payload = $1)
# 0 "" 2
#NO_APP
	xorl	%ecx, %ecx
	cmpq	$0, -144(%rbp)
	jle	.L1668
	xorl	%eax, %eax
	movq	%rsi, -112(%rbp)
	jmp	.L1663
	.p2align 4,,10
	.p2align 3
.L1669:
	movq	%rdx, %rax
.L1663:
	leaq	1(%rcx,%rax), %rdx
	movq	%rdx, %r15
	subq	-64(%rbp), %r15
	js	.L1662
	movq	%r15, %rsi
	subq	-64(%rbp), %rsi
	movq	%rsi, %rdx
	cmovs	%r15, %rdx
.L1662:
	salq	$6, %rax
	addq	$2, %rcx
	leaq	(%r14,%rax), %r15
	leaq	0(%r13,%rax), %rsi
	vmovdqa	(%r15), %ymm0
	vmovdqa	32(%r15), %ymm0
	leaq	(%r12,%rax), %r15
	vmovdqa	(%rsi), %ymm0
	vmovdqa	32(%rsi), %ymm0
	leaq	(%rbx,%rax), %rsi
	vmovdqa	(%r15), %ymm0
	vmovdqa	32(%r15), %ymm0
	leaq	(%rdi,%rax), %r15
	vmovdqa	(%rsi), %ymm0
	vmovdqa	32(%rsi), %ymm0
	leaq	(%r11,%rax), %rsi
	vmovdqa	(%r15), %ymm0
	vmovdqa	32(%r15), %ymm0
	leaq	(%r10,%rax), %r15
	vmovdqa	(%rsi), %ymm0
	vmovdqa	32(%rsi), %ymm0
	leaq	(%r9,%rax), %rsi
	vmovdqa	(%r15), %ymm0
	vmovdqa	32(%r15), %ymm0
	leaq	(%r8,%rax), %r15
	vmovdqa	(%rsi), %ymm0
	vmovdqa	32(%rsi), %ymm0
	movq	-72(%rbp), %rsi
	vmovdqa	(%r15), %ymm0
	vmovdqa	32(%r15), %ymm0
	leaq	(%rsi,%rax), %r15
	movq	-80(%rbp), %rsi
	vmovdqa	(%r15), %ymm0
	vmovdqa	32(%r15), %ymm0
	leaq	(%rsi,%rax), %r15
	movq	-88(%rbp), %rsi
	vmovdqa	(%r15), %ymm0
	vmovdqa	32(%r15), %ymm0
	leaq	(%rsi,%rax), %r15
	movq	-96(%rbp), %rsi
	vmovdqa	(%r15), %ymm0
	vmovdqa	32(%r15), %ymm0
	leaq	(%rsi,%rax), %r15
	movq	-104(%rbp), %rsi
	vmovdqa	(%r15), %ymm0
	vmovdqa	32(%r15), %ymm0
	leaq	(%rsi,%rax), %r15
	vmovdqa	(%r15), %ymm0
	vmovdqa	32(%r15), %ymm0
	movq	-112(%rbp), %rsi
	leaq	(%rsi,%rax), %r15
	addq	-56(%rbp), %rax
	vmovdqa	(%r15), %ymm0
	vmovdqa	32(%r15), %ymm0
	vmovdqa	(%rax), %ymm0
	vmovdqa	32(%rax), %ymm0
	cmpq	-120(%rbp), %rcx
	jne	.L1669
	movq	-144(%rbp), %r15
	movq	%rdx, %rcx
	salq	$6, %rcx
	leaq	1(%r15), %r15
.L1661:
	movq	-64(%rbp), %rax
	subq	%rdx, %rax
	leaq	(%r14,%rcx), %rdx
	vmovdqa	(%rdx), %ymm0
	vmovdqa	32(%rdx), %ymm0
	leaq	0(%r13,%rcx), %rdx
	vmovdqa	(%rdx), %ymm0
	vmovdqa	32(%rdx), %ymm0
	leaq	(%r12,%rcx), %rdx
	vmovdqa	(%rdx), %ymm0
	vmovdqa	32(%rdx), %ymm0
	leaq	(%rbx,%rcx), %rdx
	vmovdqa	(%rdx), %ymm0
	vmovdqa	32(%rdx), %ymm0
	leaq	(%rdi,%rcx), %rdx
	vmovdqa	(%rdx), %ymm0
	vmovdqa	32(%rdx), %ymm0
	leaq	(%r11,%rcx), %rdx
	vmovdqa	(%rdx), %ymm0
	vmovdqa	32(%rdx), %ymm0
	leaq	(%r10,%rcx), %rdx
	vmovdqa	(%rdx), %ymm0
	vmovdqa	32(%rdx), %ymm0
	leaq	(%r9,%rcx), %rdx
	vmovdqa	(%rdx), %ymm0
	vmovdqa	32(%rdx), %ymm0
	leaq	(%r8,%rcx), %rdx
	vmovdqa	(%rdx), %ymm0
	vmovdqa	32(%rdx), %ymm0
	movq	-72(%rbp), %rdx
	addq	%rcx, %rdx
	vmovdqa	(%rdx), %ymm0
	vmovdqa	32(%rdx), %ymm0
	movq	-80(%rbp), %rdx
	addq	%rcx, %rdx
	vmovdqa	(%rdx), %ymm0
	vmovdqa	32(%rdx), %ymm0
	movq	-88(%rbp), %rdx
	addq	%rcx, %rdx
	vmovdqa	(%rdx), %ymm0
	vmovdqa	32(%rdx), %ymm0
	movq	-96(%rbp), %rdx
	addq	%rcx, %rdx
	vmovdqa	(%rdx), %ymm0
	vmovdqa	32(%rdx), %ymm0
	movq	-104(%rbp), %rdx
	addq	%rcx, %rdx
	vmovdqa	(%rdx), %ymm0
	vmovdqa	32(%rdx), %ymm0
	leaq	(%rsi,%rcx), %rdx
	addq	-56(%rbp), %rcx
	vmovdqa	(%rdx), %ymm0
	vmovdqa	32(%rdx), %ymm0
	vmovdqa	(%rcx), %ymm0
	vmovdqa	32(%rcx), %ymm0
	cmpq	%r15, -64(%rbp)
	jle	.L1670
	leaq	1(%r15,%r15), %rdx
	jmp	.L1666
	.p2align 4,,10
	.p2align 3
.L1665:
	salq	$6, %rax
	addq	$2, %rdx
	leaq	(%r14,%rax), %r15
	vmovdqa	(%r15), %ymm0
	vmovdqa	32(%r15), %ymm0
	leaq	0(%r13,%rax), %r15
	vmovdqa	(%r15), %ymm0
	vmovdqa	32(%r15), %ymm0
	leaq	(%r12,%rax), %r15
	vmovdqa	(%r15), %ymm0
	vmovdqa	32(%r15), %ymm0
	leaq	(%rbx,%rax), %r15
	vmovdqa	(%r15), %ymm0
	vmovdqa	32(%r15), %ymm0
	leaq	(%rdi,%rax), %r15
	vmovdqa	(%r15), %ymm0
	vmovdqa	32(%r15), %ymm0
	leaq	(%r11,%rax), %r15
	vmovdqa	(%r15), %ymm0
	vmovdqa	32(%r15), %ymm0
	leaq	(%r10,%rax), %r15
	vmovdqa	(%r15), %ymm0
	vmovdqa	32(%r15), %ymm0
	leaq	(%r9,%rax), %r15
	vmovdqa	(%r15), %ymm0
	vmovdqa	32(%r15), %ymm0
	leaq	(%r8,%rax), %r15
	vmovdqa	(%r15), %ymm0
	vmovdqa	32(%r15), %ymm0
	movq	-72(%rbp), %r15
	addq	%rax, %r15
	vmovdqa	(%r15), %ymm0
	vmovdqa	32(%r15), %ymm0
	movq	-80(%rbp), %r15
	addq	%rax, %r15
	vmovdqa	(%r15), %ymm0
	vmovdqa	32(%r15), %ymm0
	movq	-88(%rbp), %r15
	addq	%rax, %r15
	vmovdqa	(%r15), %ymm0
	vmovdqa	32(%r15), %ymm0
	movq	-96(%rbp), %r15
	addq	%rax, %r15
	vmovdqa	(%r15), %ymm0
	vmovdqa	32(%r15), %ymm0
	movq	-104(%rbp), %r15
	addq	%rax, %r15
	vmovdqa	(%r15), %ymm0
	vmovdqa	32(%r15), %ymm0
	leaq	(%rsi,%rax), %r15
	addq	-56(%rbp), %rax
	vmovdqa	(%r15), %ymm0
	vmovdqa	32(%r15), %ymm0
	vmovdqa	(%rax), %ymm0
	vmovdqa	32(%rax), %ymm0
	cmpq	%rdx, -128(%rbp)
	je	.L1664
	movq	%rcx, %rax
.L1666:
	movq	%rax, %rcx
	subq	%rdx, %rcx
	jns	.L1665
	movq	-64(%rbp), %r15
	addq	%r15, %rcx
	jns	.L1665
	addq	%r15, %rcx
	jmp	.L1665
.L1670:
	movq	%rax, %rcx
	.p2align 4,,10
	.p2align 3
.L1664:
#APP
# 249 "mem.cc" 1
	# random loop end (n_chains = $16, payload = $1)
# 0 "" 2
#NO_APP
	addq	$1, -136(%rbp)
	movq	-136(%rbp), %r15
	cmpq	%r15, -152(%rbp)
	jne	.L1667
	salq	$6, %rcx
	vzeroupper
	movq	-56(%rbp), %rax
.L1660:
	addq	$8, %rsp
	addq	%rcx, %rax
	popq	%rbx
	popq	%rdx
	.cfi_remember_state
	.cfi_def_cfa 10, 0
	popq	%r12
	popq	%r13
	popq	%r14
	popq	%r15
	popq	%rbp
	leaq	-8(%rdx), %rsp
	.cfi_def_cfa 7, 8
	ret
.L1668:
	.cfi_restore_state
	movl	$1, %r15d
	xorl	%edx, %edx
	jmp	.L1661
.L1674:
	movq	120(%rdi), %rax
	xorl	%ecx, %ecx
	movq	%rax, -56(%rbp)
	jmp	.L1660
	.cfi_endproc
.LFE258:
	.size	_Z13access_randomILi16ELi1EEP6recordPS1_ll, .-_Z13access_randomILi16ELi1EEP6recordPS1_ll
	.section	.text.unlikely._Z13access_randomILi16ELi1EEP6recordPS1_ll,"axG",@progbits,_Z13access_randomILi16ELi1EEP6recordPS1_ll,comdat
.LCOLDE80:
	.section	.text._Z13access_randomILi16ELi1EEP6recordPS1_ll,"axG",@progbits,_Z13access_randomILi16ELi1EEP6recordPS1_ll,comdat
.LHOTE80:
	.section	.text.unlikely._Z13access_randomILi16ELi0EEP6recordPS1_ll,"axG",@progbits,_Z13access_randomILi16ELi0EEP6recordPS1_ll,comdat
.LCOLDB81:
	.section	.text._Z13access_randomILi16ELi0EEP6recordPS1_ll,"axG",@progbits,_Z13access_randomILi16ELi0EEP6recordPS1_ll,comdat
.LHOTB81:
	.p2align 4,,15
	.weak	_Z13access_randomILi16ELi0EEP6recordPS1_ll
	.type	_Z13access_randomILi16ELi0EEP6recordPS1_ll, @function
_Z13access_randomILi16ELi0EEP6recordPS1_ll:
.LFB261:
	.cfi_startproc
	pushq	%r15
	.cfi_def_cfa_offset 16
	.cfi_offset 15, -16
	movq	%rdi, %rax
	pushq	%r14
	.cfi_def_cfa_offset 24
	.cfi_offset 14, -24
	pushq	%r13
	.cfi_def_cfa_offset 32
	.cfi_offset 13, -32
	pushq	%r12
	.cfi_def_cfa_offset 40
	.cfi_offset 12, -40
	pushq	%rbp
	.cfi_def_cfa_offset 48
	.cfi_offset 6, -48
	pushq	%rbx
	.cfi_def_cfa_offset 56
	.cfi_offset 3, -56
	movq	%rdx, -8(%rsp)
	testq	%rdx, %rdx
	jle	.L1691
	movq	80(%rax), %rdx
	movq	%rsi, -88(%rsp)
	movq	88(%rax), %r14
	movq	$0, -24(%rsp)
	movq	120(%rdi), %rdi
	movq	96(%rax), %r15
	movq	%rdx, -80(%rsp)
	movq	104(%rax), %rdx
	movq	%r14, -72(%rsp)
	leaq	-1(%rsi), %r14
	movq	(%rax), %r13
	movq	%rdi, -96(%rsp)
	movq	8(%rax), %r12
	movq	16(%rax), %rbp
	movq	%r15, -64(%rsp)
	movq	24(%rax), %rbx
	movq	%rdx, -56(%rsp)
	movq	%r14, %rdx
	movq	32(%rax), %rdi
	shrq	$63, %rdx
	movq	40(%rax), %r11
	addq	%rdx, %r14
	movq	48(%rax), %r10
	sarq	%r14
	movq	56(%rax), %r9
	movq	%r14, -16(%rsp)
	addq	%r14, %r14
	movq	64(%rax), %r8
	movq	%r14, -40(%rsp)
	movq	72(%rax), %rcx
	movq	112(%rax), %rax
	movq	%rax, %r15
	leaq	1(%rsi,%rsi), %rax
	movq	%rax, -32(%rsp)
	.p2align 4,,10
	.p2align 3
.L1684:
#APP
# 207 "mem.cc" 1
	# random loop begin (n_chains = $16, payload = $0)
# 0 "" 2
#NO_APP
	xorl	%esi, %esi
	cmpq	$0, -16(%rsp)
	jle	.L1685
	xorl	%eax, %eax
	movq	%rcx, -48(%rsp)
	jmp	.L1680
	.p2align 4,,10
	.p2align 3
.L1686:
	movq	%rdx, %rax
.L1680:
	leaq	1(%rsi,%rax), %rdx
	movq	%rdx, %r14
	subq	-88(%rsp), %r14
	js	.L1679
	movq	%r14, %rcx
	subq	-88(%rsp), %rcx
	movq	%rcx, %rdx
	cmovs	%r14, %rdx
.L1679:
	salq	$6, %rax
	addq	$2, %rsi
	leaq	(%r12,%rax), %rcx
	leaq	0(%r13,%rax), %r14
	movq	(%r14), %r14
	movq	(%rcx), %r14
	leaq	(%rbx,%rax), %rcx
	leaq	0(%rbp,%rax), %r14
	movq	(%r14), %r14
	movq	(%rcx), %r14
	leaq	(%r11,%rax), %rcx
	leaq	(%rdi,%rax), %r14
	movq	(%r14), %r14
	movq	(%rcx), %r14
	leaq	(%r9,%rax), %rcx
	leaq	(%r10,%rax), %r14
	movq	(%r14), %r14
	movq	(%rcx), %r14
	leaq	(%r8,%rax), %r14
	movq	-48(%rsp), %rcx
	movq	(%r14), %r14
	leaq	(%rcx,%rax), %r14
	movq	-80(%rsp), %rcx
	movq	(%r14), %r14
	leaq	(%rcx,%rax), %r14
	movq	-72(%rsp), %rcx
	movq	(%r14), %r14
	leaq	(%rcx,%rax), %r14
	movq	-64(%rsp), %rcx
	movq	(%r14), %r14
	leaq	(%rcx,%rax), %r14
	movq	-56(%rsp), %rcx
	movq	(%r14), %r14
	leaq	(%rcx,%rax), %r14
	leaq	(%r15,%rax), %rcx
	addq	-96(%rsp), %rax
	movq	(%r14), %r14
	movq	(%rcx), %r14
	movq	(%rax), %rax
	cmpq	-40(%rsp), %rsi
	jne	.L1686
	movq	-16(%rsp), %r14
	movq	%rdx, %rsi
	movq	-48(%rsp), %rcx
	salq	$6, %rsi
	leaq	1(%r14), %r14
.L1678:
	movq	-88(%rsp), %rax
	subq	%rdx, %rax
	leaq	0(%r13,%rsi), %rdx
	movq	(%rdx), %rdx
	leaq	(%r12,%rsi), %rdx
	movq	(%rdx), %rdx
	leaq	0(%rbp,%rsi), %rdx
	movq	(%rdx), %rdx
	leaq	(%rbx,%rsi), %rdx
	movq	(%rdx), %rdx
	leaq	(%rdi,%rsi), %rdx
	movq	(%rdx), %rdx
	leaq	(%r11,%rsi), %rdx
	movq	(%rdx), %rdx
	leaq	(%r10,%rsi), %rdx
	movq	(%rdx), %rdx
	leaq	(%r9,%rsi), %rdx
	movq	(%rdx), %rdx
	leaq	(%r8,%rsi), %rdx
	movq	(%rdx), %rdx
	leaq	(%rcx,%rsi), %rdx
	movq	(%rdx), %rdx
	movq	-80(%rsp), %rdx
	addq	%rsi, %rdx
	movq	(%rdx), %rdx
	movq	-72(%rsp), %rdx
	addq	%rsi, %rdx
	movq	(%rdx), %rdx
	movq	-64(%rsp), %rdx
	addq	%rsi, %rdx
	movq	(%rdx), %rdx
	movq	-56(%rsp), %rdx
	addq	%rsi, %rdx
	movq	(%rdx), %rdx
	leaq	(%r15,%rsi), %rdx
	addq	-96(%rsp), %rsi
	movq	(%rdx), %rdx
	movq	(%rsi), %rdx
	cmpq	%r14, -88(%rsp)
	jle	.L1687
	leaq	1(%r14,%r14), %rdx
	jmp	.L1683
	.p2align 4,,10
	.p2align 3
.L1682:
	salq	$6, %rax
	addq	$2, %rdx
	leaq	0(%r13,%rax), %rsi
	movq	(%rsi), %rsi
	leaq	(%r12,%rax), %rsi
	movq	(%rsi), %rsi
	leaq	0(%rbp,%rax), %rsi
	movq	(%rsi), %rsi
	leaq	(%rbx,%rax), %rsi
	movq	(%rsi), %rsi
	leaq	(%rdi,%rax), %rsi
	movq	(%rsi), %rsi
	leaq	(%r11,%rax), %rsi
	movq	(%rsi), %rsi
	leaq	(%r10,%rax), %rsi
	movq	(%rsi), %rsi
	leaq	(%r9,%rax), %rsi
	movq	(%rsi), %rsi
	leaq	(%r8,%rax), %rsi
	movq	(%rsi), %rsi
	leaq	(%rcx,%rax), %rsi
	movq	(%rsi), %rsi
	movq	-80(%rsp), %rsi
	addq	%rax, %rsi
	movq	(%rsi), %rsi
	movq	-72(%rsp), %rsi
	addq	%rax, %rsi
	movq	(%rsi), %rsi
	movq	-64(%rsp), %rsi
	addq	%rax, %rsi
	movq	(%rsi), %rsi
	movq	-56(%rsp), %rsi
	addq	%rax, %rsi
	movq	(%rsi), %rsi
	leaq	(%r15,%rax), %rsi
	addq	-96(%rsp), %rax
	movq	(%rsi), %rsi
	movq	(%rax), %rax
	cmpq	%rdx, -32(%rsp)
	je	.L1681
	movq	%r14, %rax
.L1683:
	movq	%rax, %r14
	subq	%rdx, %r14
	jns	.L1682
	movq	-88(%rsp), %rsi
	addq	%rsi, %r14
	jns	.L1682
	addq	%rsi, %r14
	jmp	.L1682
.L1687:
	movq	%rax, %r14
	.p2align 4,,10
	.p2align 3
.L1681:
#APP
# 249 "mem.cc" 1
	# random loop end (n_chains = $16, payload = $0)
# 0 "" 2
#NO_APP
	addq	$1, -24(%rsp)
	movq	-24(%rsp), %rsi
	cmpq	%rsi, -8(%rsp)
	jne	.L1684
	movq	-96(%rsp), %rax
	salq	$6, %r14
	popq	%rbx
	.cfi_remember_state
	.cfi_def_cfa_offset 48
	popq	%rbp
	.cfi_def_cfa_offset 40
	popq	%r12
	.cfi_def_cfa_offset 32
	addq	%r14, %rax
	popq	%r13
	.cfi_def_cfa_offset 24
	popq	%r14
	.cfi_def_cfa_offset 16
	popq	%r15
	.cfi_def_cfa_offset 8
	ret
.L1685:
	.cfi_restore_state
	movl	$1, %r14d
	xorl	%edx, %edx
	jmp	.L1678
.L1691:
	movq	120(%rdi), %rax
	xorl	%r14d, %r14d
	movq	%rax, -96(%rsp)
	popq	%rbx
